
out/kernel.elf:     file format elf32-littlearm


Disassembly of section .text:

402f0400 <_start>:
402f0400:	eb000527 	bl	402f18a4 <setup_modes>
402f0404:	eb00053d 	bl	402f1900 <setup_exceptions>
402f0408:	e3045000 	movw	r5, #16384	@ 0x4000
402f040c:	e3001802 	movw	r1, #2050	@ 0x802
402f0410:	e301000c 	movw	r0, #4108	@ 0x100c
402f0414:	e344502f 	movt	r5, #16431	@ 0x402f
402f0418:	e3441030 	movt	r1, #16432	@ 0x4030
402f041c:	e3a02c11 	mov	r2, #4352	@ 0x1100
402f0420:	e7851000 	str	r1, [r5, r0]
402f0424:	e3001802 	movw	r1, #2050	@ 0x802
402f0428:	e3010008 	movw	r0, #4104	@ 0x1008
402f042c:	e3441020 	movt	r1, #16416	@ 0x4020
402f0430:	e7851000 	str	r1, [r5, r0]
402f0434:	e3001402 	movw	r1, #1026	@ 0x402
402f0438:	e3a00000 	mov	r0, #0
402f043c:	e3441400 	movt	r1, #17408	@ 0x4400
402f0440:	e0853100 	add	r3, r5, r0, lsl #2
402f0444:	e2800001 	add	r0, r0, #1
402f0448:	e3500d0f 	cmp	r0, #960	@ 0x3c0
402f044c:	e7831002 	str	r1, [r3, r2]
402f0450:	e2811601 	add	r1, r1, #1048576	@ 0x100000
402f0454:	1afffff9 	bne	402f0440 <_start+0x40>
402f0458:	e3084000 	movw	r4, #32768	@ 0x8000
402f045c:	e3a01b01 	mov	r1, #1024	@ 0x400
402f0460:	e344402f 	movt	r4, #16431	@ 0x402f
402f0464:	e1a00004 	mov	r0, r4
402f0468:	eb0004fe 	bl	402f1868 <__aeabi_memclr8>
402f046c:	e3840001 	orr	r0, r4, #1
402f0470:	e5850000 	str	r0, [r5]
402f0474:	e3a01000 	mov	r1, #0
402f0478:	ee021f50 	mcr	15, 0, r1, cr2, cr0, {2}
402f047c:	e3050555 	movw	r0, #21845	@ 0x5555
402f0480:	e3081504 	movw	r1, #34052	@ 0x8504
402f0484:	ee025f10 	mcr	15, 0, r5, cr2, cr0, {0}
402f0488:	e3450555 	movt	r0, #21845	@ 0x5555
402f048c:	e344102f 	movt	r1, #16431	@ 0x402f
402f0490:	ee081f17 	mcr	15, 0, r1, cr8, cr7, {0}
402f0494:	f57ff04f 	dsb	sy
402f0498:	f57ff06f 	isb	sy
402f049c:	e3a0c001 	mov	ip, #1
402f04a0:	e3a05004 	mov	r5, #4
402f04a4:	ee030f10 	mcr	15, 0, r0, cr3, cr0, {0}
402f04a8:	e3004f6c 	movw	r4, #3948	@ 0xf6c
402f04ac:	e308e50c 	movw	lr, #34060	@ 0x850c
402f04b0:	ee110f10 	mrc	15, 0, r0, cr1, cr0, {0}
402f04b4:	e344402f 	movt	r4, #16431	@ 0x402f
402f04b8:	e344e02f 	movt	lr, #16431	@ 0x402f
402f04bc:	e3800001 	orr	r0, r0, #1
402f04c0:	ee010f10 	mcr	15, 0, r0, cr1, cr0, {0}
402f04c4:	f57ff06f 	isb	sy
402f04c8:	f57ff04f 	dsb	sy
402f04cc:	e5c1c000 	strb	ip, [r1]
402f04d0:	e10f2000 	mrs	r2, CPSR
402f04d4:	e3823080 	orr	r3, r2, #128	@ 0x80
402f04d8:	e121f003 	msr	CPSR_c, r3
402f04dc:	e30837f8 	movw	r3, #34808	@ 0x87f8
402f04e0:	e344302f 	movt	r3, #16431	@ 0x402f
402f04e4:	e5813004 	str	r3, [r1, #4]
402f04e8:	e3001840 	movw	r1, #2112	@ 0x840
402f04ec:	e121f002 	msr	CPSR_c, r2
402f04f0:	e34414e1 	movt	r1, #17633	@ 0x44e1
402f04f4:	e3a02027 	mov	r2, #39	@ 0x27
402f04f8:	e3003080 	movw	r3, #128	@ 0x80
402f04fc:	e5812038 	str	r2, [r1, #56]	@ 0x38
402f0500:	e5812000 	str	r2, [r1]
402f0504:	e34434e0 	movt	r3, #17632	@ 0x44e0
402f0508:	e5812004 	str	r2, [r1, #4]
402f050c:	e5812008 	str	r2, [r1, #8]
402f0510:	e581200c 	str	r2, [r1, #12]
402f0514:	e30020c8 	movw	r2, #200	@ 0xc8
402f0518:	e3a01002 	mov	r1, #2
402f051c:	e3442820 	movt	r2, #18464	@ 0x4820
402f0520:	e583102c 	str	r1, [r3, #44]	@ 0x2c
402f0524:	e58251c0 	str	r5, [r2, #448]	@ 0x1c0
402f0528:	e5925020 	ldr	r5, [r2, #32]
402f052c:	e3855004 	orr	r5, r5, #4
402f0530:	e5825020 	str	r5, [r2, #32]
402f0534:	e30855f8 	movw	r5, #34296	@ 0x85f8
402f0538:	e344502f 	movt	r5, #16431	@ 0x402f
402f053c:	e5854188 	str	r4, [r5, #392]	@ 0x188
402f0540:	e30c4134 	movw	r4, #49460	@ 0xc134
402f0544:	e3444804 	movt	r4, #18436	@ 0x4804
402f0548:	e5940000 	ldr	r0, [r4]
402f054c:	e3c00602 	bic	r0, r0, #2097152	@ 0x200000
402f0550:	e5840000 	str	r0, [r4]
402f0554:	e5940000 	ldr	r0, [r4]
402f0558:	e3c00501 	bic	r0, r0, #4194304	@ 0x400000
402f055c:	e5840000 	str	r0, [r4]
402f0560:	e5940000 	ldr	r0, [r4]
402f0564:	e3c00502 	bic	r0, r0, #8388608	@ 0x800000
402f0568:	e5840000 	str	r0, [r4]
402f056c:	e5940000 	ldr	r0, [r4]
402f0570:	e3c00401 	bic	r0, r0, #16777216	@ 0x1000000
402f0574:	e5840000 	str	r0, [r4]
402f0578:	e300002c 	movw	r0, #44	@ 0x2c
402f057c:	e3004858 	movw	r4, #2136	@ 0x858
402f0580:	e5831000 	str	r1, [r3]
402f0584:	e3440804 	movt	r0, #18436	@ 0x4804
402f0588:	e3e0301f 	mvn	r3, #31
402f058c:	e344402f 	movt	r4, #16431	@ 0x402f
402f0590:	e5803014 	str	r3, [r0, #20]
402f0594:	e5803010 	str	r3, [r0, #16]
402f0598:	e5801000 	str	r1, [r0]
402f059c:	e5854110 	str	r4, [r5, #272]	@ 0x110
402f05a0:	e3a05000 	mov	r5, #0
402f05a4:	e5825148 	str	r5, [r2, #328]	@ 0x148
402f05a8:	e5924000 	ldr	r4, [r2]
402f05ac:	e3844010 	orr	r4, r4, #16
402f05b0:	e5824000 	str	r4, [r2]
402f05b4:	e3a02003 	mov	r2, #3
402f05b8:	e3004800 	movw	r4, #2048	@ 0x800
402f05bc:	e580200c 	str	r2, [r0, #12]
402f05c0:	e30805a4 	movw	r0, #34212	@ 0x85a4
402f05c4:	e344002f 	movt	r0, #16431	@ 0x402f
402f05c8:	e344402f 	movt	r4, #16431	@ 0x402f
402f05cc:	e58e208c 	str	r2, [lr, #140]	@ 0x8c
402f05d0:	e3a02001 	mov	r2, #1
402f05d4:	e5801018 	str	r1, [r0, #24]
402f05d8:	e58e1068 	str	r1, [lr, #104]	@ 0x68
402f05dc:	e3a01018 	mov	r1, #24
402f05e0:	e580401c 	str	r4, [r0, #28]
402f05e4:	e5803020 	str	r3, [r0, #32]
402f05e8:	e30c0000 	movw	r0, #49152	@ 0xc000
402f05ec:	e58ec044 	str	ip, [lr, #68]	@ 0x44
402f05f0:	e3440804 	movt	r0, #18436	@ 0x4804
402f05f4:	e58e5020 	str	r5, [lr, #32]
402f05f8:	e52de004 	push	{lr}		@ (str lr, [sp, #-4]!)
402f05fc:	ef000004 	svc	0x00000004
402f0600:	e49de004 	pop	{lr}		@ (ldr lr, [sp], #4)
402f0604:	e1ce00d0 	ldrd	r0, [lr]
402f0608:	e3500000 	cmp	r0, #0
402f060c:	01a01000 	moveq	r1, r0
402f0610:	e1a00001 	mov	r0, r1
402f0614:	e3500004 	cmp	r0, #4
402f0618:	2a00005b 	bcs	402f078c <_start+0x38c>
402f061c:	e0802180 	add	r2, r0, r0, lsl #3
402f0620:	e08e2102 	add	r2, lr, r2, lsl #2
402f0624:	e5925018 	ldr	r5, [r2, #24]
402f0628:	e3550002 	cmp	r5, #2
402f062c:	0a000004 	beq	402f0644 <_start+0x244>
402f0630:	e2800001 	add	r0, r0, #1
402f0634:	e2000003 	and	r0, r0, #3
402f0638:	e1500001 	cmp	r0, r1
402f063c:	1afffff4 	bne	402f0614 <_start+0x214>
402f0640:	ea000022 	b	402f06d0 <_start+0x2d0>
402f0644:	e2820008 	add	r0, r2, #8
402f0648:	e3085400 	movw	r5, #33792	@ 0x8400
402f064c:	e3004000 	movw	r4, #0
402f0650:	e3a02000 	mov	r2, #0
402f0654:	e5900018 	ldr	r0, [r0, #24]
402f0658:	e344502f 	movt	r5, #16431	@ 0x402f
402f065c:	e34f4ff0 	movt	r4, #65520	@ 0xfff0
402f0660:	e1520004 	cmp	r2, r4
402f0664:	0a000019 	beq	402f06d0 <_start+0x2d0>
402f0668:	e4d53001 	ldrb	r3, [r5], #1
402f066c:	e2422a01 	sub	r2, r2, #4096	@ 0x1000
402f0670:	e3530000 	cmp	r3, #0
402f0674:	1afffff9 	bne	402f0660 <_start+0x260>
402f0678:	e3a01001 	mov	r1, #1
402f067c:	e3500004 	cmp	r0, #4
402f0680:	e5451001 	strb	r1, [r5, #-1]
402f0684:	2a000040 	bcs	402f078c <_start+0x38c>
402f0688:	e0803180 	add	r3, r0, r0, lsl #3
402f068c:	e3005fac 	movw	r5, #4012	@ 0xfac
402f0690:	e344502f 	movt	r5, #16431	@ 0x402f
402f0694:	e3004ffc 	movw	r4, #4092	@ 0xffc
402f0698:	e08e3103 	add	r3, lr, r3, lsl #2
402f069c:	e1c342f4 	strd	r4, [r3, #36]	@ 0x24
402f06a0:	e30f4000 	movw	r4, #61440	@ 0xf000
402f06a4:	e3a05000 	mov	r5, #0
402f06a8:	e344402f 	movt	r4, #16431	@ 0x402f
402f06ac:	e0442002 	sub	r2, r4, r2
402f06b0:	e5831008 	str	r1, [r3, #8]
402f06b4:	e583000c 	str	r0, [r3, #12]
402f06b8:	e5835010 	str	r5, [r3, #16]
402f06bc:	e5832014 	str	r2, [r3, #20]
402f06c0:	e5835018 	str	r5, [r3, #24]
402f06c4:	e1ce20d0 	ldrd	r2, [lr]
402f06c8:	e2121001 	ands	r1, r2, #1
402f06cc:	11a01003 	movne	r1, r3
402f06d0:	e1a00001 	mov	r0, r1
402f06d4:	e3500004 	cmp	r0, #4
402f06d8:	2a00002b 	bcs	402f078c <_start+0x38c>
402f06dc:	e0802180 	add	r2, r0, r0, lsl #3
402f06e0:	e08e2102 	add	r2, lr, r2, lsl #2
402f06e4:	e5923018 	ldr	r3, [r2, #24]
402f06e8:	e3530002 	cmp	r3, #2
402f06ec:	0a000004 	beq	402f0704 <_start+0x304>
402f06f0:	e2800001 	add	r0, r0, #1
402f06f4:	e2000003 	and	r0, r0, #3
402f06f8:	e1500001 	cmp	r0, r1
402f06fc:	1afffff4 	bne	402f06d4 <_start+0x2d4>
402f0700:	eb0001b7 	bl	402f0de4 <kernel_loop>
402f0704:	e2820008 	add	r0, r2, #8
402f0708:	e3082400 	movw	r2, #33792	@ 0x8400
402f070c:	e3005000 	movw	r5, #0
402f0710:	e3a01000 	mov	r1, #0
402f0714:	e5900018 	ldr	r0, [r0, #24]
402f0718:	e344202f 	movt	r2, #16431	@ 0x402f
402f071c:	e34f5ff0 	movt	r5, #65520	@ 0xfff0
402f0720:	e1510005 	cmp	r1, r5
402f0724:	0afffff5 	beq	402f0700 <_start+0x300>
402f0728:	e4d23001 	ldrb	r3, [r2], #1
402f072c:	e2411a01 	sub	r1, r1, #4096	@ 0x1000
402f0730:	e3530000 	cmp	r3, #0
402f0734:	1afffff9 	bne	402f0720 <_start+0x320>
402f0738:	e3a05001 	mov	r5, #1
402f073c:	e3500004 	cmp	r0, #4
402f0740:	e5425001 	strb	r5, [r2, #-1]
402f0744:	2a000010 	bcs	402f078c <_start+0x38c>
402f0748:	e0802180 	add	r2, r0, r0, lsl #3
402f074c:	e3013010 	movw	r3, #4112	@ 0x1010
402f0750:	e344302f 	movt	r3, #16431	@ 0x402f
402f0754:	e3004ffc 	movw	r4, #4092	@ 0xffc
402f0758:	e08e2102 	add	r2, lr, r2, lsl #2
402f075c:	e5824024 	str	r4, [r2, #36]	@ 0x24
402f0760:	e30f4000 	movw	r4, #61440	@ 0xf000
402f0764:	e5823028 	str	r3, [r2, #40]	@ 0x28
402f0768:	e3a03000 	mov	r3, #0
402f076c:	e344402f 	movt	r4, #16431	@ 0x402f
402f0770:	e0441001 	sub	r1, r4, r1
402f0774:	e5825008 	str	r5, [r2, #8]
402f0778:	e582000c 	str	r0, [r2, #12]
402f077c:	e5823010 	str	r3, [r2, #16]
402f0780:	e5821014 	str	r1, [r2, #20]
402f0784:	e5823018 	str	r3, [r2, #24]
402f0788:	eb000195 	bl	402f0de4 <kernel_loop>
402f078c:	e3012ac4 	movw	r2, #6852	@ 0x1ac4
402f0790:	e3a01004 	mov	r1, #4
402f0794:	e344202f 	movt	r2, #16431	@ 0x402f
402f0798:	eb00023d 	bl	402f1094 <_ZN4core9panicking18panic_bounds_check17h758011ffe847d113E>

402f079c <data_abort_handler>:
402f079c:	e30c0000 	movw	r0, #49152	@ 0xc000
402f07a0:	e3a01015 	mov	r1, #21
402f07a4:	e3440804 	movt	r0, #18436	@ 0x4804
402f07a8:	e3a02001 	mov	r2, #1
402f07ac:	e52de004 	push	{lr}		@ (str lr, [sp, #-4]!)
402f07b0:	ef000004 	svc	0x00000004
402f07b4:	e49de004 	pop	{lr}		@ (ldr lr, [sp], #4)
402f07b8:	eafffffe 	b	402f07b8 <data_abort_handler+0x1c>

402f07bc <fetch_abort_handler>:
402f07bc:	e30c0000 	movw	r0, #49152	@ 0xc000
402f07c0:	e3a01017 	mov	r1, #23
402f07c4:	e3440804 	movt	r0, #18436	@ 0x4804
402f07c8:	e3a02001 	mov	r2, #1
402f07cc:	e52de004 	push	{lr}		@ (str lr, [sp, #-4]!)
402f07d0:	ef000004 	svc	0x00000004
402f07d4:	e49de004 	pop	{lr}		@ (ldr lr, [sp], #4)
402f07d8:	eafffffe 	b	402f07d8 <fetch_abort_handler+0x1c>

402f07dc <undefined_handler>:
402f07dc:	e30c0000 	movw	r0, #49152	@ 0xc000
402f07e0:	e3a01016 	mov	r1, #22
402f07e4:	e3440804 	movt	r0, #18436	@ 0x4804
402f07e8:	e3a02001 	mov	r2, #1
402f07ec:	e52de004 	push	{lr}		@ (str lr, [sp, #-4]!)
402f07f0:	ef000004 	svc	0x00000004
402f07f4:	e49de004 	pop	{lr}		@ (ldr lr, [sp], #4)
402f07f8:	eafffffe 	b	402f07f8 <undefined_handler+0x1c>

402f07fc <rust_begin_unwind>:
402f07fc:	eafffffe 	b	402f07fc <rust_begin_unwind>

402f0800 <_ZN6kernel9internals8sysclock17interrupt_handler17h82ea6019755d3378E>:
402f0800:	e92d4010 	push	{r4, lr}
402f0804:	e10f4000 	mrs	r4, CPSR
402f0808:	e3840080 	orr	r0, r4, #128	@ 0x80
402f080c:	e121f000 	msr	CPSR_c, r0
402f0810:	e3080500 	movw	r0, #34048	@ 0x8500
402f0814:	e344002f 	movt	r0, #16431	@ 0x402f
402f0818:	e5901000 	ldr	r1, [r0]
402f081c:	e2811001 	add	r1, r1, #1
402f0820:	e5801000 	str	r1, [r0]
402f0824:	e30c0ccd 	movw	r0, #52429	@ 0xcccd
402f0828:	e34c0ccc 	movt	r0, #52428	@ 0xcccc
402f082c:	e0000091 	mul	r0, r1, r0
402f0830:	e3091999 	movw	r1, #39321	@ 0x9999
402f0834:	e3411999 	movt	r1, #6553	@ 0x1999
402f0838:	e1a000e0 	ror	r0, r0, #1
402f083c:	e1500001 	cmp	r0, r1
402f0840:	9a000001 	bls	402f084c <_ZN6kernel9internals8sysclock17interrupt_handler17h82ea6019755d3378E+0x4c>
402f0844:	e121f004 	msr	CPSR_c, r4
402f0848:	e8bd8010 	pop	{r4, pc}
402f084c:	eb000457 	bl	402f19b0 <yield_task>
402f0850:	e121f004 	msr	CPSR_c, r4
402f0854:	e8bd8010 	pop	{r4, pc}

402f0858 <_ZN6kernel9internals5timer5Timer16handle_timer_irq17h0d9b3be8a34eb3b8E>:
402f0858:	e92d4070 	push	{r4, r5, r6, lr}
402f085c:	e3000040 	movw	r0, #64	@ 0x40
402f0860:	e3440820 	movt	r0, #18464	@ 0x4820
402f0864:	e5900000 	ldr	r0, [r0]
402f0868:	e200007f 	and	r0, r0, #127	@ 0x7f
402f086c:	e2401044 	sub	r1, r0, #68	@ 0x44
402f0870:	e351001b 	cmp	r1, #27
402f0874:	8a00004a 	bhi	402f09a4 <_ZN6kernel9internals5timer5Timer16handle_timer_irq17h0d9b3be8a34eb3b8E+0x14c>
402f0878:	e28f2004 	add	r2, pc, #4
402f087c:	e3a00003 	mov	r0, #3
402f0880:	e792f101 	ldr	pc, [r2, r1, lsl #2]
402f0884:	402f08f4 	.word	0x402f08f4
402f0888:	402f0910 	.word	0x402f0910
402f088c:	402f09a4 	.word	0x402f09a4
402f0890:	402f09a4 	.word	0x402f09a4
402f0894:	402f09a4 	.word	0x402f09a4
402f0898:	402f09a4 	.word	0x402f09a4
402f089c:	402f09a4 	.word	0x402f09a4
402f08a0:	402f09a4 	.word	0x402f09a4
402f08a4:	402f09a4 	.word	0x402f09a4
402f08a8:	402f09a4 	.word	0x402f09a4
402f08ac:	402f09a4 	.word	0x402f09a4
402f08b0:	402f09a4 	.word	0x402f09a4
402f08b4:	402f09a4 	.word	0x402f09a4
402f08b8:	402f09a4 	.word	0x402f09a4
402f08bc:	402f09a4 	.word	0x402f09a4
402f08c0:	402f09a4 	.word	0x402f09a4
402f08c4:	402f09a4 	.word	0x402f09a4
402f08c8:	402f09a4 	.word	0x402f09a4
402f08cc:	402f09a4 	.word	0x402f09a4
402f08d0:	402f09a4 	.word	0x402f09a4
402f08d4:	402f09a4 	.word	0x402f09a4
402f08d8:	402f09a4 	.word	0x402f09a4
402f08dc:	402f09a4 	.word	0x402f09a4
402f08e0:	402f09a4 	.word	0x402f09a4
402f08e4:	402f0904 	.word	0x402f0904
402f08e8:	402f08fc 	.word	0x402f08fc
402f08ec:	402f090c 	.word	0x402f090c
402f08f0:	402f09a8 	.word	0x402f09a8
402f08f4:	e3a00002 	mov	r0, #2
402f08f8:	ea000004 	b	402f0910 <_ZN6kernel9internals5timer5Timer16handle_timer_irq17h0d9b3be8a34eb3b8E+0xb8>
402f08fc:	e3a00005 	mov	r0, #5
402f0900:	ea000002 	b	402f0910 <_ZN6kernel9internals5timer5Timer16handle_timer_irq17h0d9b3be8a34eb3b8E+0xb8>
402f0904:	e3a00004 	mov	r0, #4
402f0908:	ea000000 	b	402f0910 <_ZN6kernel9internals5timer5Timer16handle_timer_irq17h0d9b3be8a34eb3b8E+0xb8>
402f090c:	e3a00006 	mov	r0, #6
402f0910:	e30845a4 	movw	r4, #34212	@ 0x85a4
402f0914:	e0800080 	add	r0, r0, r0, lsl #1
402f0918:	e344402f 	movt	r4, #16431	@ 0x402f
402f091c:	e7b40100 	ldr	r0, [r4, r0, lsl #2]!
402f0920:	e28f200c 	add	r2, pc, #12
402f0924:	e2401001 	sub	r1, r0, #1
402f0928:	e3000030 	movw	r0, #48	@ 0x30
402f092c:	e3440804 	movt	r0, #18436	@ 0x4804
402f0930:	e792f101 	ldr	pc, [r2, r1, lsl #2]
402f0934:	402f09a4 	.word	0x402f09a4
402f0938:	402f0974 	.word	0x402f0974
402f093c:	402f0950 	.word	0x402f0950
402f0940:	402f0960 	.word	0x402f0960
402f0944:	402f0958 	.word	0x402f0958
402f0948:	402f0968 	.word	0x402f0968
402f094c:	402f0970 	.word	0x402f0970
402f0950:	e2800a02 	add	r0, r0, #8192	@ 0x2000
402f0954:	ea000006 	b	402f0974 <_ZN6kernel9internals5timer5Timer16handle_timer_irq17h0d9b3be8a34eb3b8E+0x11c>
402f0958:	e2800a06 	add	r0, r0, #24576	@ 0x6000
402f095c:	ea000004 	b	402f0974 <_ZN6kernel9internals5timer5Timer16handle_timer_irq17h0d9b3be8a34eb3b8E+0x11c>
402f0960:	e2800901 	add	r0, r0, #16384	@ 0x4000
402f0964:	ea000002 	b	402f0974 <_ZN6kernel9internals5timer5Timer16handle_timer_irq17h0d9b3be8a34eb3b8E+0x11c>
402f0968:	e2800902 	add	r0, r0, #32768	@ 0x8000
402f096c:	ea000000 	b	402f0974 <_ZN6kernel9internals5timer5Timer16handle_timer_irq17h0d9b3be8a34eb3b8E+0x11c>
402f0970:	e2800a0a 	add	r0, r0, #40960	@ 0xa000
402f0974:	e3a05002 	mov	r5, #2
402f0978:	e30c6028 	movw	r6, #49192	@ 0xc028
402f097c:	e5805000 	str	r5, [r0]
402f0980:	e3446803 	movt	r6, #18435	@ 0x4803
402f0984:	e5940000 	ldr	r0, [r4]
402f0988:	e1a00680 	lsl	r0, r0, #13
402f098c:	e7805006 	str	r5, [r0, r6]
402f0990:	e5940004 	ldr	r0, [r4, #4]
402f0994:	e12fff30 	blx	r0
402f0998:	e5940000 	ldr	r0, [r4]
402f099c:	e0860680 	add	r0, r6, r0, lsl #13
402f09a0:	e5805004 	str	r5, [r0, #4]
402f09a4:	e8bd8070 	pop	{r4, r5, r6, pc}
402f09a8:	e3012af4 	movw	r2, #6900	@ 0x1af4
402f09ac:	e3a00007 	mov	r0, #7
402f09b0:	e344202f 	movt	r2, #16431	@ 0x402f
402f09b4:	e3a01007 	mov	r1, #7
402f09b8:	eb0001b5 	bl	402f1094 <_ZN4core9panicking18panic_bounds_check17h758011ffe847d113E>

402f09bc <handle_interrupt>:
402f09bc:	e92d4010 	push	{r4, lr}
402f09c0:	e3004040 	movw	r4, #64	@ 0x40
402f09c4:	e3444820 	movt	r4, #18464	@ 0x4820
402f09c8:	e5940000 	ldr	r0, [r4]
402f09cc:	e200007f 	and	r0, r0, #127	@ 0x7f
402f09d0:	e2401044 	sub	r1, r0, #68	@ 0x44
402f09d4:	e351001b 	cmp	r1, #27
402f09d8:	8a000008 	bhi	402f0a00 <handle_interrupt+0x44>
402f09dc:	e3003003 	movw	r3, #3
402f09e0:	e3a02001 	mov	r2, #1
402f09e4:	e3403f00 	movt	r3, #3840	@ 0xf00
402f09e8:	e1130112 	tst	r3, r2, lsl r1
402f09ec:	0a000003 	beq	402f0a00 <handle_interrupt+0x44>
402f09f0:	e30815f8 	movw	r1, #34296	@ 0x85f8
402f09f4:	e344102f 	movt	r1, #16431	@ 0x402f
402f09f8:	e7910100 	ldr	r0, [r1, r0, lsl #2]
402f09fc:	e12fff30 	blx	r0
402f0a00:	e3a00001 	mov	r0, #1
402f0a04:	e5840008 	str	r0, [r4, #8]
402f0a08:	e8bd8010 	pop	{r4, pc}

402f0a0c <swi_handler>:
402f0a0c:	e92d48f0 	push	{r4, r5, r6, r7, fp, lr}
402f0a10:	e24dd018 	sub	sp, sp, #24
402f0a14:	e5913010 	ldr	r3, [r1, #16]
402f0a18:	e3530004 	cmp	r3, #4
402f0a1c:	8a0000ca 	bhi	402f0d4c <swi_handler+0x340>
402f0a20:	e28f7004 	add	r7, pc, #4
402f0a24:	e3a04002 	mov	r4, #2
402f0a28:	e797f103 	ldr	pc, [r7, r3, lsl #2]
402f0a2c:	402f0b1c 	.word	0x402f0b1c
402f0a30:	402f0a40 	.word	0x402f0a40
402f0a34:	402f0a84 	.word	0x402f0a84
402f0a38:	402f0a8c 	.word	0x402f0a8c
402f0a3c:	402f0a54 	.word	0x402f0a54
402f0a40:	e8910064 	ldm	r1, {r2, r5, r6}
402f0a44:	e3560000 	cmp	r6, #0
402f0a48:	e1a04006 	mov	r4, r6
402f0a4c:	13004001 	movwne	r4, #1
402f0a50:	ea000031 	b	402f0b1c <swi_handler+0x110>
402f0a54:	e5912000 	ldr	r2, [r1]
402f0a58:	e30b3fff 	movw	r3, #49151	@ 0xbfff
402f0a5c:	e344381a 	movt	r3, #18458	@ 0x481a
402f0a60:	e1520003 	cmp	r2, r3
402f0a64:	ca000014 	bgt	402f0abc <swi_handler+0xb0>
402f0a68:	e3073000 	movw	r3, #28672	@ 0x7000
402f0a6c:	e34434e0 	movt	r3, #17632	@ 0x44e0
402f0a70:	e1520003 	cmp	r2, r3
402f0a74:	0a000018 	beq	402f0adc <swi_handler+0xd0>
402f0a78:	e30c3000 	movw	r3, #49152	@ 0xc000
402f0a7c:	e3443804 	movt	r3, #18436	@ 0x4804
402f0a80:	ea000013 	b	402f0ad4 <swi_handler+0xc8>
402f0a84:	e3a04004 	mov	r4, #4
402f0a88:	ea000023 	b	402f0b1c <swi_handler+0x110>
402f0a8c:	e5912000 	ldr	r2, [r1]
402f0a90:	e30b3fff 	movw	r3, #49151	@ 0xbfff
402f0a94:	e344381a 	movt	r3, #18458	@ 0x481a
402f0a98:	e1520003 	cmp	r2, r3
402f0a9c:	ca000014 	bgt	402f0af4 <swi_handler+0xe8>
402f0aa0:	e3073000 	movw	r3, #28672	@ 0x7000
402f0aa4:	e34434e0 	movt	r3, #17632	@ 0x44e0
402f0aa8:	e1520003 	cmp	r2, r3
402f0aac:	0a000018 	beq	402f0b14 <swi_handler+0x108>
402f0ab0:	e30c3000 	movw	r3, #49152	@ 0xc000
402f0ab4:	e3443804 	movt	r3, #18436	@ 0x4804
402f0ab8:	ea000013 	b	402f0b0c <swi_handler+0x100>
402f0abc:	e30c3000 	movw	r3, #49152	@ 0xc000
402f0ac0:	e344381a 	movt	r3, #18458	@ 0x481a
402f0ac4:	e1520003 	cmp	r2, r3
402f0ac8:	0a000003 	beq	402f0adc <swi_handler+0xd0>
402f0acc:	e30e3000 	movw	r3, #57344	@ 0xe000
402f0ad0:	e344381a 	movt	r3, #18458	@ 0x481a
402f0ad4:	e1520003 	cmp	r2, r3
402f0ad8:	1a0000a9 	bne	402f0d84 <swi_handler+0x378>
402f0adc:	e5915008 	ldr	r5, [r1, #8]
402f0ae0:	e3a04006 	mov	r4, #6
402f0ae4:	e5916004 	ldr	r6, [r1, #4]
402f0ae8:	e3550000 	cmp	r5, #0
402f0aec:	13005001 	movwne	r5, #1
402f0af0:	ea000009 	b	402f0b1c <swi_handler+0x110>
402f0af4:	e30c3000 	movw	r3, #49152	@ 0xc000
402f0af8:	e344381a 	movt	r3, #18458	@ 0x481a
402f0afc:	e1520003 	cmp	r2, r3
402f0b00:	0a000003 	beq	402f0b14 <swi_handler+0x108>
402f0b04:	e30e3000 	movw	r3, #57344	@ 0xe000
402f0b08:	e344381a 	movt	r3, #18458	@ 0x481a
402f0b0c:	e1520003 	cmp	r2, r3
402f0b10:	1a00009b 	bne	402f0d84 <swi_handler+0x378>
402f0b14:	e5916004 	ldr	r6, [r1, #4]
402f0b18:	e3a04005 	mov	r4, #5
402f0b1c:	e2441002 	sub	r1, r4, #2
402f0b20:	e28f3008 	add	r3, pc, #8
402f0b24:	e3510005 	cmp	r1, #5
402f0b28:	23a01001 	movcs	r1, #1
402f0b2c:	e793f101 	ldr	pc, [r3, r1, lsl #2]
402f0b30:	402f0b44 	.word	0x402f0b44
402f0b34:	402f0c7c 	.word	0x402f0c7c
402f0b38:	402f0c28 	.word	0x402f0c28
402f0b3c:	402f0c58 	.word	0x402f0c58
402f0b40:	402f0bf8 	.word	0x402f0bf8
402f0b44:	e308250c 	movw	r2, #34060	@ 0x850c
402f0b48:	e344202f 	movt	r2, #16431	@ 0x402f
402f0b4c:	e5923000 	ldr	r3, [r2]
402f0b50:	e3530001 	cmp	r3, #1
402f0b54:	1a000021 	bne	402f0be0 <swi_handler+0x1d4>
402f0b58:	e5921004 	ldr	r1, [r2, #4]
402f0b5c:	e3510004 	cmp	r1, #4
402f0b60:	2a000074 	bcs	402f0d38 <swi_handler+0x32c>
402f0b64:	e0811181 	add	r1, r1, r1, lsl #3
402f0b68:	e0821101 	add	r1, r2, r1, lsl #2
402f0b6c:	e5917018 	ldr	r7, [r1, #24]
402f0b70:	e3570001 	cmp	r7, #1
402f0b74:	1a000019 	bne	402f0be0 <swi_handler+0x1d4>
402f0b78:	e2813008 	add	r3, r1, #8
402f0b7c:	e3a01002 	mov	r1, #2
402f0b80:	e5936008 	ldr	r6, [r3, #8]
402f0b84:	e5831010 	str	r1, [r3, #16]
402f0b88:	e1a01626 	lsr	r1, r6, #12
402f0b8c:	e1b07a26 	lsrs	r7, r6, #20
402f0b90:	1a000089 	bne	402f0dbc <swi_handler+0x3b0>
402f0b94:	e3087000 	movw	r7, #32768	@ 0x8000
402f0b98:	e3a04000 	mov	r4, #0
402f0b9c:	e344702f 	movt	r7, #16431	@ 0x402f
402f0ba0:	e7874101 	str	r4, [r7, r1, lsl #2]
402f0ba4:	e593100c 	ldr	r1, [r3, #12]
402f0ba8:	e28116fd 	add	r1, r1, #265289728	@ 0xfd00000
402f0bac:	e281720b 	add	r7, r1, #-1342177280	@ 0xb0000000
402f0bb0:	e3570601 	cmp	r7, #1048576	@ 0x100000
402f0bb4:	e1a01627 	lsr	r1, r7, #12
402f0bb8:	2a000084 	bcs	402f0dd0 <swi_handler+0x3c4>
402f0bbc:	e3087400 	movw	r7, #33792	@ 0x8400
402f0bc0:	e344702f 	movt	r7, #16431	@ 0x402f
402f0bc4:	e7c74001 	strb	r4, [r7, r1]
402f0bc8:	e2061aff 	and	r1, r6, #1044480	@ 0xff000
402f0bcc:	e1c340d0 	ldrd	r4, [r3]
402f0bd0:	e3540000 	cmp	r4, #0
402f0bd4:	11811005 	orrne	r1, r1, r5
402f0bd8:	ee081f37 	mcr	15, 0, r1, cr8, cr7, {1}
402f0bdc:	e5923000 	ldr	r3, [r2]
402f0be0:	e3130001 	tst	r3, #1
402f0be4:	15921004 	ldrne	r1, [r2, #4]
402f0be8:	12811001 	addne	r1, r1, #1
402f0bec:	12011003 	andne	r1, r1, #3
402f0bf0:	15821004 	strne	r1, [r2, #4]
402f0bf4:	ea000049 	b	402f0d20 <swi_handler+0x314>
402f0bf8:	e3a01000 	mov	r1, #0
402f0bfc:	e3a03001 	mov	r3, #1
402f0c00:	e5801004 	str	r1, [r0, #4]
402f0c04:	e3150001 	tst	r5, #1
402f0c08:	e5c01000 	strb	r1, [r0]
402f0c0c:	e206001f 	and	r0, r6, #31
402f0c10:	e592113c 	ldr	r1, [r2, #316]	@ 0x13c
402f0c14:	e1c17013 	bic	r7, r1, r3, lsl r0
402f0c18:	11817013 	orrne	r7, r1, r3, lsl r0
402f0c1c:	e582713c 	str	r7, [r2, #316]	@ 0x13c
402f0c20:	e28dd018 	add	sp, sp, #24
402f0c24:	e8bd88f0 	pop	{r4, r5, r6, r7, fp, pc}
402f0c28:	e10f1000 	mrs	r1, CPSR
402f0c2c:	e3812080 	orr	r2, r1, #128	@ 0x80
402f0c30:	e121f002 	msr	CPSR_c, r2
402f0c34:	e3a02000 	mov	r2, #0
402f0c38:	e5c02000 	strb	r2, [r0]
402f0c3c:	e3082500 	movw	r2, #34048	@ 0x8500
402f0c40:	e344202f 	movt	r2, #16431	@ 0x402f
402f0c44:	e5922000 	ldr	r2, [r2]
402f0c48:	e5802004 	str	r2, [r0, #4]
402f0c4c:	e121f001 	msr	CPSR_c, r1
402f0c50:	e28dd018 	add	sp, sp, #24
402f0c54:	e8bd88f0 	pop	{r4, r5, r6, r7, fp, pc}
402f0c58:	e3a01000 	mov	r1, #0
402f0c5c:	e3a03001 	mov	r3, #1
402f0c60:	e5c01000 	strb	r1, [r0]
402f0c64:	e206101f 	and	r1, r6, #31
402f0c68:	e5922138 	ldr	r2, [r2, #312]	@ 0x138
402f0c6c:	e0031132 	and	r1, r3, r2, lsr r1
402f0c70:	e5801004 	str	r1, [r0, #4]
402f0c74:	e28dd018 	add	sp, sp, #24
402f0c78:	e8bd88f0 	pop	{r4, r5, r6, r7, fp, pc}
402f0c7c:	e308c50c 	movw	ip, #34060	@ 0x850c
402f0c80:	e3540000 	cmp	r4, #0
402f0c84:	e344c02f 	movt	ip, #16431	@ 0x402f
402f0c88:	e59c1000 	ldr	r1, [ip]
402f0c8c:	0a000010 	beq	402f0cd4 <swi_handler+0x2c8>
402f0c90:	e3510000 	cmp	r1, #0
402f0c94:	0a000021 	beq	402f0d20 <swi_handler+0x314>
402f0c98:	e59c1004 	ldr	r1, [ip, #4]
402f0c9c:	e3510004 	cmp	r1, #4
402f0ca0:	2a000024 	bcs	402f0d38 <swi_handler+0x32c>
402f0ca4:	e0813181 	add	r3, r1, r1, lsl #3
402f0ca8:	e08c3103 	add	r3, ip, r3, lsl #2
402f0cac:	e5937018 	ldr	r7, [r3, #24]
402f0cb0:	e3570001 	cmp	r7, #1
402f0cb4:	1a000016 	bne	402f0d14 <swi_handler+0x308>
402f0cb8:	e2831008 	add	r1, r3, #8
402f0cbc:	e581201c 	str	r2, [r1, #28]
402f0cc0:	e3a02003 	mov	r2, #3
402f0cc4:	e5812010 	str	r2, [r1, #16]
402f0cc8:	e5815020 	str	r5, [r1, #32]
402f0ccc:	e5816014 	str	r6, [r1, #20]
402f0cd0:	ea00000e 	b	402f0d10 <swi_handler+0x304>
402f0cd4:	e3510000 	cmp	r1, #0
402f0cd8:	0a000010 	beq	402f0d20 <swi_handler+0x314>
402f0cdc:	e59c1004 	ldr	r1, [ip, #4]
402f0ce0:	e3510004 	cmp	r1, #4
402f0ce4:	2a000013 	bcs	402f0d38 <swi_handler+0x32c>
402f0ce8:	e0813181 	add	r3, r1, r1, lsl #3
402f0cec:	e08c3103 	add	r3, ip, r3, lsl #2
402f0cf0:	e5937018 	ldr	r7, [r3, #24]
402f0cf4:	e3570001 	cmp	r7, #1
402f0cf8:	1a000005 	bne	402f0d14 <swi_handler+0x308>
402f0cfc:	e2831008 	add	r1, r3, #8
402f0d00:	e581201c 	str	r2, [r1, #28]
402f0d04:	e3a02004 	mov	r2, #4
402f0d08:	e5815020 	str	r5, [r1, #32]
402f0d0c:	e5812010 	str	r2, [r1, #16]
402f0d10:	e59c1004 	ldr	r1, [ip, #4]
402f0d14:	e2811001 	add	r1, r1, #1
402f0d18:	e2011003 	and	r1, r1, #3
402f0d1c:	e58c1004 	str	r1, [ip, #4]
402f0d20:	e3a01000 	mov	r1, #0
402f0d24:	e5801004 	str	r1, [r0, #4]
402f0d28:	e3a01001 	mov	r1, #1
402f0d2c:	e5c01000 	strb	r1, [r0]
402f0d30:	e28dd018 	add	sp, sp, #24
402f0d34:	e8bd88f0 	pop	{r4, r5, r6, r7, fp, pc}
402f0d38:	e3012ac4 	movw	r2, #6852	@ 0x1ac4
402f0d3c:	e1a00001 	mov	r0, r1
402f0d40:	e344202f 	movt	r2, #16431	@ 0x402f
402f0d44:	e3a01004 	mov	r1, #4
402f0d48:	eb0000d1 	bl	402f1094 <_ZN4core9panicking18panic_bounds_check17h758011ffe847d113E>
402f0d4c:	e3a01001 	mov	r1, #1
402f0d50:	e3a00000 	mov	r0, #0
402f0d54:	e58d1004 	str	r1, [sp, #4]
402f0d58:	e3011b14 	movw	r1, #6932	@ 0x1b14
402f0d5c:	e344102f 	movt	r1, #16431	@ 0x402f
402f0d60:	e58d0010 	str	r0, [sp, #16]
402f0d64:	e58d1000 	str	r1, [sp]
402f0d68:	e3011b30 	movw	r1, #6960	@ 0x1b30
402f0d6c:	e58d000c 	str	r0, [sp, #12]
402f0d70:	e3a00004 	mov	r0, #4
402f0d74:	e58d0008 	str	r0, [sp, #8]
402f0d78:	e1a0000d 	mov	r0, sp
402f0d7c:	e344102f 	movt	r1, #16431	@ 0x402f
402f0d80:	eb0000bb 	bl	402f1074 <_ZN4core9panicking9panic_fmt17h2ffca96eecb2b94bE>
402f0d84:	e3a01001 	mov	r1, #1
402f0d88:	e3a00000 	mov	r0, #0
402f0d8c:	e58d1004 	str	r1, [sp, #4]
402f0d90:	e3011b54 	movw	r1, #6996	@ 0x1b54
402f0d94:	e344102f 	movt	r1, #16431	@ 0x402f
402f0d98:	e58d0010 	str	r0, [sp, #16]
402f0d9c:	e58d1000 	str	r1, [sp]
402f0da0:	e3011b7c 	movw	r1, #7036	@ 0x1b7c
402f0da4:	e58d000c 	str	r0, [sp, #12]
402f0da8:	e3a00004 	mov	r0, #4
402f0dac:	e58d0008 	str	r0, [sp, #8]
402f0db0:	e1a0000d 	mov	r0, sp
402f0db4:	e344102f 	movt	r1, #16431	@ 0x402f
402f0db8:	eb0000ad 	bl	402f1074 <_ZN4core9panicking9panic_fmt17h2ffca96eecb2b94bE>
402f0dbc:	e3012a84 	movw	r2, #6788	@ 0x1a84
402f0dc0:	e344202f 	movt	r2, #16431	@ 0x402f
402f0dc4:	e1a00001 	mov	r0, r1
402f0dc8:	e3a01c01 	mov	r1, #256	@ 0x100
402f0dcc:	eb0000b0 	bl	402f1094 <_ZN4core9panicking18panic_bounds_check17h758011ffe847d113E>
402f0dd0:	e3012a94 	movw	r2, #6804	@ 0x1a94
402f0dd4:	e344202f 	movt	r2, #16431	@ 0x402f
402f0dd8:	e1a00001 	mov	r0, r1
402f0ddc:	e3a01c01 	mov	r1, #256	@ 0x100
402f0de0:	eb0000ab 	bl	402f1094 <_ZN4core9panicking18panic_bounds_check17h758011ffe847d113E>

402f0de4 <kernel_loop>:
402f0de4:	e308450c 	movw	r4, #34060	@ 0x850c
402f0de8:	e3087000 	movw	r7, #32768	@ 0x8000
402f0dec:	e344402f 	movt	r4, #16431	@ 0x402f
402f0df0:	e3a08004 	mov	r8, #4
402f0df4:	e3a06001 	mov	r6, #1
402f0df8:	e344702f 	movt	r7, #16431	@ 0x402f
402f0dfc:	e1c420d0 	ldrd	r2, [r4]
402f0e00:	e3520000 	cmp	r2, #0
402f0e04:	01a03002 	moveq	r3, r2
402f0e08:	e1a01003 	mov	r1, r3
402f0e0c:	e3510004 	cmp	r1, #4
402f0e10:	2a00004c 	bcs	402f0f48 <kernel_loop+0x164>
402f0e14:	e0810181 	add	r0, r1, r1, lsl #3
402f0e18:	e0842100 	add	r2, r4, r0, lsl #2
402f0e1c:	e5920018 	ldr	r0, [r2, #24]
402f0e20:	e2822008 	add	r2, r2, #8
402f0e24:	e3500003 	cmp	r0, #3
402f0e28:	0a000003 	beq	402f0e3c <kernel_loop+0x58>
402f0e2c:	e3500000 	cmp	r0, #0
402f0e30:	13500004 	cmpne	r0, #4
402f0e34:	0a00000c 	beq	402f0e6c <kernel_loop+0x88>
402f0e38:	ea000005 	b	402f0e54 <kernel_loop+0x70>
402f0e3c:	e5925014 	ldr	r5, [r2, #20]
402f0e40:	e52de004 	push	{lr}		@ (str lr, [sp, #-4]!)
402f0e44:	ef000002 	svc	0x00000002
402f0e48:	e49de004 	pop	{lr}		@ (ldr lr, [sp], #4)
402f0e4c:	e1500005 	cmp	r0, r5
402f0e50:	2a000004 	bcs	402f0e68 <kernel_loop+0x84>
402f0e54:	e2810001 	add	r0, r1, #1
402f0e58:	e2001003 	and	r1, r0, #3
402f0e5c:	e1510003 	cmp	r1, r3
402f0e60:	1affffe9 	bne	402f0e0c <kernel_loop+0x28>
402f0e64:	eaffffe4 	b	402f0dfc <kernel_loop+0x18>
402f0e68:	e5828010 	str	r8, [r2, #16]
402f0e6c:	e5921018 	ldr	r1, [r2, #24]
402f0e70:	e5846000 	str	r6, [r4]
402f0e74:	e3510004 	cmp	r1, #4
402f0e78:	e5841004 	str	r1, [r4, #4]
402f0e7c:	2a000031 	bcs	402f0f48 <kernel_loop+0x164>
402f0e80:	e0810181 	add	r0, r1, r1, lsl #3
402f0e84:	e0841100 	add	r1, r4, r0, lsl #2
402f0e88:	e5910018 	ldr	r0, [r1, #24]
402f0e8c:	e2811008 	add	r1, r1, #8
402f0e90:	e3500004 	cmp	r0, #4
402f0e94:	0a000016 	beq	402f0ef4 <kernel_loop+0x110>
402f0e98:	e3500000 	cmp	r0, #0
402f0e9c:	1affffd6 	bne	402f0dfc <kernel_loop+0x18>
402f0ea0:	e5912000 	ldr	r2, [r1]
402f0ea4:	e5816010 	str	r6, [r1, #16]
402f0ea8:	e3520001 	cmp	r2, #1
402f0eac:	1a000001 	bne	402f0eb8 <kernel_loop+0xd4>
402f0eb0:	e5910004 	ldr	r0, [r1, #4]
402f0eb4:	ee0d0f30 	mcr	15, 0, r0, cr13, cr0, {1}
402f0eb8:	e5913008 	ldr	r3, [r1, #8]
402f0ebc:	e3530601 	cmp	r3, #1048576	@ 0x100000
402f0ec0:	e1a00623 	lsr	r0, r3, #12
402f0ec4:	2a000024 	bcs	402f0f5c <kernel_loop+0x178>
402f0ec8:	e591300c 	ldr	r3, [r1, #12]
402f0ecc:	e3520000 	cmp	r2, #0
402f0ed0:	e1c1a1dc 	ldrd	sl, [r1, #28]
402f0ed4:	e3a02032 	mov	r2, #50	@ 0x32
402f0ed8:	13002832 	movwne	r2, #2098	@ 0x832
402f0edc:	e1831002 	orr	r1, r3, r2
402f0ee0:	e7871100 	str	r1, [r7, r0, lsl #2]
402f0ee4:	e1a0100b 	mov	r1, fp
402f0ee8:	e1a0000a 	mov	r0, sl
402f0eec:	eb0002c9 	bl	402f1a18 <switch_context>
402f0ef0:	eaffffc1 	b	402f0dfc <kernel_loop+0x18>
402f0ef4:	e5912000 	ldr	r2, [r1]
402f0ef8:	e5816010 	str	r6, [r1, #16]
402f0efc:	e3520001 	cmp	r2, #1
402f0f00:	1a000001 	bne	402f0f0c <kernel_loop+0x128>
402f0f04:	e5910004 	ldr	r0, [r1, #4]
402f0f08:	ee0d0f30 	mcr	15, 0, r0, cr13, cr0, {1}
402f0f0c:	e5913008 	ldr	r3, [r1, #8]
402f0f10:	e3530601 	cmp	r3, #1048576	@ 0x100000
402f0f14:	e1a00623 	lsr	r0, r3, #12
402f0f18:	2a00000f 	bcs	402f0f5c <kernel_loop+0x178>
402f0f1c:	e591300c 	ldr	r3, [r1, #12]
402f0f20:	e3520000 	cmp	r2, #0
402f0f24:	e1c1a1dc 	ldrd	sl, [r1, #28]
402f0f28:	e3a02032 	mov	r2, #50	@ 0x32
402f0f2c:	13002832 	movwne	r2, #2098	@ 0x832
402f0f30:	e1831002 	orr	r1, r3, r2
402f0f34:	e7871100 	str	r1, [r7, r0, lsl #2]
402f0f38:	e1a0100b 	mov	r1, fp
402f0f3c:	e1a0000a 	mov	r0, sl
402f0f40:	eb000293 	bl	402f1994 <restore_context>
402f0f44:	eaffffac 	b	402f0dfc <kernel_loop+0x18>
402f0f48:	e3012ac4 	movw	r2, #6852	@ 0x1ac4
402f0f4c:	e1a00001 	mov	r0, r1
402f0f50:	e344202f 	movt	r2, #16431	@ 0x402f
402f0f54:	e3a01004 	mov	r1, #4
402f0f58:	eb00004d 	bl	402f1094 <_ZN4core9panicking18panic_bounds_check17h758011ffe847d113E>
402f0f5c:	e3012a74 	movw	r2, #6772	@ 0x1a74
402f0f60:	e3a01c01 	mov	r1, #256	@ 0x100
402f0f64:	e344202f 	movt	r2, #16431	@ 0x402f
402f0f68:	eb000049 	bl	402f1094 <_ZN4core9panicking18panic_bounds_check17h758011ffe847d113E>

402f0f6c <_ZN6kernel11peripherals4gpio17handle_interrupts17ha133bc55cc3e962dE>:
402f0f6c:	e30c0024 	movw	r0, #49188	@ 0xc024
402f0f70:	e3440804 	movt	r0, #18436	@ 0x4804
402f0f74:	e5901000 	ldr	r1, [r0]
402f0f78:	e6ff1f31 	rbit	r1, r1
402f0f7c:	e16f1f11 	clz	r1, r1
402f0f80:	e351001f 	cmp	r1, #31
402f0f84:	93a02001 	movls	r2, #1
402f0f88:	91a01112 	lslls	r1, r2, r1
402f0f8c:	95801008 	strls	r1, [r0, #8]
402f0f90:	912fff1e 	bxls	lr
402f0f94:	e3012b8c 	movw	r2, #7052	@ 0x1b8c
402f0f98:	e3a00020 	mov	r0, #32
402f0f9c:	e344202f 	movt	r2, #16431	@ 0x402f
402f0fa0:	e3a01020 	mov	r1, #32
402f0fa4:	eb00003a 	bl	402f1094 <_ZN4core9panicking18panic_bounds_check17h758011ffe847d113E>

402f0fa8 <_ZN6kernel3sys4noop17ha17d8be047056296E>:
402f0fa8:	e12fff1e 	bx	lr

402f0fac <_ZN6kernel9user_loop17hfd02e7dd84252a47E>:
402f0fac:	e30c4000 	movw	r4, #49152	@ 0xc000
402f0fb0:	e3444804 	movt	r4, #18436	@ 0x4804
402f0fb4:	e1a00004 	mov	r0, r4
402f0fb8:	e3a01017 	mov	r1, #23
402f0fbc:	e3a02001 	mov	r2, #1
402f0fc0:	e52de004 	push	{lr}		@ (str lr, [sp, #-4]!)
402f0fc4:	ef000004 	svc	0x00000004
402f0fc8:	e49de004 	pop	{lr}		@ (ldr lr, [sp], #4)
402f0fcc:	e52de004 	push	{lr}		@ (str lr, [sp, #-4]!)
402f0fd0:	ef000002 	svc	0x00000002
402f0fd4:	e49de004 	pop	{lr}		@ (ldr lr, [sp], #4)
402f0fd8:	e2800ffa 	add	r0, r0, #1000	@ 0x3e8
402f0fdc:	eb000292 	bl	402f1a2c <wait_store>
402f0fe0:	e1a00004 	mov	r0, r4
402f0fe4:	e3a01017 	mov	r1, #23
402f0fe8:	e3a02000 	mov	r2, #0
402f0fec:	e52de004 	push	{lr}		@ (str lr, [sp, #-4]!)
402f0ff0:	ef000004 	svc	0x00000004
402f0ff4:	e49de004 	pop	{lr}		@ (ldr lr, [sp], #4)
402f0ff8:	e52de004 	push	{lr}		@ (str lr, [sp, #-4]!)
402f0ffc:	ef000002 	svc	0x00000002
402f1000:	e49de004 	pop	{lr}		@ (ldr lr, [sp], #4)
402f1004:	e2800ffa 	add	r0, r0, #1000	@ 0x3e8
402f1008:	eb000287 	bl	402f1a2c <wait_store>
402f100c:	eaffffe8 	b	402f0fb4 <_ZN6kernel9user_loop17hfd02e7dd84252a47E+0x8>

402f1010 <_ZN6kernel10user_loop217hf9a66ebc79a34cb4E>:
402f1010:	e30c4000 	movw	r4, #49152	@ 0xc000
402f1014:	e3444804 	movt	r4, #18436	@ 0x4804
402f1018:	e1a00004 	mov	r0, r4
402f101c:	e3a01016 	mov	r1, #22
402f1020:	e3a02000 	mov	r2, #0
402f1024:	e52de004 	push	{lr}		@ (str lr, [sp, #-4]!)
402f1028:	ef000004 	svc	0x00000004
402f102c:	e49de004 	pop	{lr}		@ (ldr lr, [sp], #4)
402f1030:	e52de004 	push	{lr}		@ (str lr, [sp, #-4]!)
402f1034:	ef000002 	svc	0x00000002
402f1038:	e49de004 	pop	{lr}		@ (ldr lr, [sp], #4)
402f103c:	e2800ffa 	add	r0, r0, #1000	@ 0x3e8
402f1040:	eb000279 	bl	402f1a2c <wait_store>
402f1044:	e1a00004 	mov	r0, r4
402f1048:	e3a01016 	mov	r1, #22
402f104c:	e3a02001 	mov	r2, #1
402f1050:	e52de004 	push	{lr}		@ (str lr, [sp, #-4]!)
402f1054:	ef000004 	svc	0x00000004
402f1058:	e49de004 	pop	{lr}		@ (ldr lr, [sp], #4)
402f105c:	e52de004 	push	{lr}		@ (str lr, [sp, #-4]!)
402f1060:	ef000002 	svc	0x00000002
402f1064:	e49de004 	pop	{lr}		@ (ldr lr, [sp], #4)
402f1068:	e2800ffa 	add	r0, r0, #1000	@ 0x3e8
402f106c:	eb00026e 	bl	402f1a2c <wait_store>
402f1070:	eaffffe8 	b	402f1018 <_ZN6kernel10user_loop217hf9a66ebc79a34cb4E+0x8>

402f1074 <_ZN4core9panicking9panic_fmt17h2ffca96eecb2b94bE>:
402f1074:	e92d4800 	push	{fp, lr}
402f1078:	e1a0b00d 	mov	fp, sp
402f107c:	e24dd010 	sub	sp, sp, #16
402f1080:	e98d0003 	stmib	sp, {r0, r1}
402f1084:	e28d0004 	add	r0, sp, #4
402f1088:	e3a02001 	mov	r2, #1
402f108c:	e1cd20bc 	strh	r2, [sp, #12]
402f1090:	ebfffdd9 	bl	402f07fc <rust_begin_unwind>

402f1094 <_ZN4core9panicking18panic_bounds_check17h758011ffe847d113E>:
402f1094:	e92d4800 	push	{fp, lr}
402f1098:	e1a0b00d 	mov	fp, sp
402f109c:	e24dd030 	sub	sp, sp, #48	@ 0x30
402f10a0:	e88d0003 	stm	sp, {r0, r1}
402f10a4:	e3a00000 	mov	r0, #0
402f10a8:	e58d0018 	str	r0, [sp, #24]
402f10ac:	e3a00002 	mov	r0, #2
402f10b0:	e58d000c 	str	r0, [sp, #12]
402f10b4:	e58d0014 	str	r0, [sp, #20]
402f10b8:	e24b0010 	sub	r0, fp, #16
402f10bc:	e58d0010 	str	r0, [sp, #16]
402f10c0:	e59f002c 	ldr	r0, [pc, #44]	@ 402f10f4 <_ZN4core9panicking18panic_bounds_check17h758011ffe847d113E+0x60>
402f10c4:	e59f1024 	ldr	r1, [pc, #36]	@ 402f10f0 <_ZN4core9panicking18panic_bounds_check17h758011ffe847d113E+0x5c>
402f10c8:	e50b0004 	str	r0, [fp, #-4]
402f10cc:	e50b000c 	str	r0, [fp, #-12]
402f10d0:	e28d0004 	add	r0, sp, #4
402f10d4:	e58d1008 	str	r1, [sp, #8]
402f10d8:	e1a0100d 	mov	r1, sp
402f10dc:	e50b0010 	str	r0, [fp, #-16]
402f10e0:	e28d0008 	add	r0, sp, #8
402f10e4:	e50b1008 	str	r1, [fp, #-8]
402f10e8:	e1a01002 	mov	r1, r2
402f10ec:	ebffffe0 	bl	402f1074 <_ZN4core9panicking9panic_fmt17h2ffca96eecb2b94bE>
402f10f0:	402f1bf0 	.word	0x402f1bf0
402f10f4:	402f16f0 	.word	0x402f16f0

402f10f8 <_ZN4core3fmt9Formatter12pad_integral17he25cf6c6dd8d7561E>:
402f10f8:	e92d4ff0 	push	{r4, r5, r6, r7, r8, r9, sl, fp, lr}
402f10fc:	e28db01c 	add	fp, sp, #28
402f1100:	e24dd014 	sub	sp, sp, #20
402f1104:	e59ba00c 	ldr	sl, [fp, #12]
402f1108:	e1a06003 	mov	r6, r3
402f110c:	e3510000 	cmp	r1, #0
402f1110:	0a000017 	beq	402f1174 <_ZN4core3fmt9Formatter12pad_integral17he25cf6c6dd8d7561E+0x7c>
402f1114:	e590901c 	ldr	r9, [r0, #28]
402f1118:	e3a0702b 	mov	r7, #43	@ 0x2b
402f111c:	e2191001 	ands	r1, r9, #1
402f1120:	e081500a 	add	r5, r1, sl
402f1124:	03a07811 	moveq	r7, #1114112	@ 0x110000
402f1128:	e59b4008 	ldr	r4, [fp, #8]
402f112c:	e3190004 	tst	r9, #4
402f1130:	e58d4010 	str	r4, [sp, #16]
402f1134:	0a000015 	beq	402f1190 <_ZN4core3fmt9Formatter12pad_integral17he25cf6c6dd8d7561E+0x98>
402f1138:	e1a08002 	mov	r8, r2
402f113c:	e3560010 	cmp	r6, #16
402f1140:	2a000028 	bcs	402f11e8 <_ZN4core3fmt9Formatter12pad_integral17he25cf6c6dd8d7561E+0xf0>
402f1144:	e3560000 	cmp	r6, #0
402f1148:	0a00002e 	beq	402f1208 <_ZN4core3fmt9Formatter12pad_integral17he25cf6c6dd8d7561E+0x110>
402f114c:	e3a01000 	mov	r1, #0
402f1150:	e1a02008 	mov	r2, r8
402f1154:	e1a04006 	mov	r4, r6
402f1158:	e1a03006 	mov	r3, r6
402f115c:	e0d260d1 	ldrsb	r6, [r2], #1
402f1160:	e3760041 	cmn	r6, #65	@ 0x41
402f1164:	c2811001 	addgt	r1, r1, #1
402f1168:	e2533001 	subs	r3, r3, #1
402f116c:	1afffffa 	bne	402f115c <_ZN4core3fmt9Formatter12pad_integral17he25cf6c6dd8d7561E+0x64>
402f1170:	ea000026 	b	402f1210 <_ZN4core3fmt9Formatter12pad_integral17he25cf6c6dd8d7561E+0x118>
402f1174:	e590901c 	ldr	r9, [r0, #28]
402f1178:	e28a5001 	add	r5, sl, #1
402f117c:	e3a0702d 	mov	r7, #45	@ 0x2d
402f1180:	e59b4008 	ldr	r4, [fp, #8]
402f1184:	e3190004 	tst	r9, #4
402f1188:	e58d4010 	str	r4, [sp, #16]
402f118c:	1affffe9 	bne	402f1138 <_ZN4core3fmt9Formatter12pad_integral17he25cf6c6dd8d7561E+0x40>
402f1190:	e3a03000 	mov	r3, #0
402f1194:	e5901000 	ldr	r1, [r0]
402f1198:	e3510000 	cmp	r1, #0
402f119c:	1a000022 	bne	402f122c <_ZN4core3fmt9Formatter12pad_integral17he25cf6c6dd8d7561E+0x134>
402f11a0:	e5905018 	ldr	r5, [r0, #24]
402f11a4:	e1a02007 	mov	r2, r7
402f11a8:	e5908014 	ldr	r8, [r0, #20]
402f11ac:	e58d6000 	str	r6, [sp]
402f11b0:	e1a01005 	mov	r1, r5
402f11b4:	e1a00008 	mov	r0, r8
402f11b8:	eb0000a2 	bl	402f1448 <_ZN4core3fmt9Formatter12pad_integral12write_prefix17hcc62d75c194d204bE>
402f11bc:	e1a01000 	mov	r1, r0
402f11c0:	e3a00001 	mov	r0, #1
402f11c4:	e3510000 	cmp	r1, #0
402f11c8:	1a00008a 	bne	402f13f8 <_ZN4core3fmt9Formatter12pad_integral17he25cf6c6dd8d7561E+0x300>
402f11cc:	e595300c 	ldr	r3, [r5, #12]
402f11d0:	e1a00008 	mov	r0, r8
402f11d4:	e1a01004 	mov	r1, r4
402f11d8:	e1a0200a 	mov	r2, sl
402f11dc:	e24bd01c 	sub	sp, fp, #28
402f11e0:	e8bd4ff0 	pop	{r4, r5, r6, r7, r8, r9, sl, fp, lr}
402f11e4:	e12fff13 	bx	r3
402f11e8:	e1a01006 	mov	r1, r6
402f11ec:	e1a06000 	mov	r6, r0
402f11f0:	e1a00008 	mov	r0, r8
402f11f4:	e1a04001 	mov	r4, r1
402f11f8:	eb0000ac 	bl	402f14b0 <_ZN4core3str5count14do_count_chars17hdf6b9943e5b80059E>
402f11fc:	e1a01000 	mov	r1, r0
402f1200:	e1a00006 	mov	r0, r6
402f1204:	ea000001 	b	402f1210 <_ZN4core3fmt9Formatter12pad_integral17he25cf6c6dd8d7561E+0x118>
402f1208:	e1a04006 	mov	r4, r6
402f120c:	e3a01000 	mov	r1, #0
402f1210:	e1a06004 	mov	r6, r4
402f1214:	e59d4010 	ldr	r4, [sp, #16]
402f1218:	e0815005 	add	r5, r1, r5
402f121c:	e1a03008 	mov	r3, r8
402f1220:	e5901000 	ldr	r1, [r0]
402f1224:	e3510000 	cmp	r1, #0
402f1228:	0affffdc 	beq	402f11a0 <_ZN4core3fmt9Formatter12pad_integral17he25cf6c6dd8d7561E+0xa8>
402f122c:	e5908004 	ldr	r8, [r0, #4]
402f1230:	e58da00c 	str	sl, [sp, #12]
402f1234:	e1580005 	cmp	r8, r5
402f1238:	9a00000e 	bls	402f1278 <_ZN4core3fmt9Formatter12pad_integral17he25cf6c6dd8d7561E+0x180>
402f123c:	e3190008 	tst	r9, #8
402f1240:	1a00001d 	bne	402f12bc <_ZN4core3fmt9Formatter12pad_integral17he25cf6c6dd8d7561E+0x1c4>
402f1244:	e5d01020 	ldrb	r1, [r0, #32]
402f1248:	e0489005 	sub	r9, r8, r5
402f124c:	e58d3008 	str	r3, [sp, #8]
402f1250:	e28f2004 	add	r2, pc, #4
402f1254:	e1a0a006 	mov	sl, r6
402f1258:	e792f101 	ldr	pc, [r2, r1, lsl #2]
402f125c:	402f1374 	.word	0x402f1374
402f1260:	402f126c 	.word	0x402f126c
402f1264:	402f1368 	.word	0x402f1368
402f1268:	402f126c 	.word	0x402f126c
402f126c:	e1a01009 	mov	r1, r9
402f1270:	e3a09000 	mov	r9, #0
402f1274:	ea00003e 	b	402f1374 <_ZN4core3fmt9Formatter12pad_integral17he25cf6c6dd8d7561E+0x27c>
402f1278:	e1c041d4 	ldrd	r4, [r0, #20]
402f127c:	e1a02007 	mov	r2, r7
402f1280:	e1a01005 	mov	r1, r5
402f1284:	e58d6000 	str	r6, [sp]
402f1288:	e1a00004 	mov	r0, r4
402f128c:	eb00006d 	bl	402f1448 <_ZN4core3fmt9Formatter12pad_integral12write_prefix17hcc62d75c194d204bE>
402f1290:	e1a01000 	mov	r1, r0
402f1294:	e3510000 	cmp	r1, #0
402f1298:	e59d200c 	ldr	r2, [sp, #12]
402f129c:	e3a00001 	mov	r0, #1
402f12a0:	e59d1010 	ldr	r1, [sp, #16]
402f12a4:	1a000053 	bne	402f13f8 <_ZN4core3fmt9Formatter12pad_integral17he25cf6c6dd8d7561E+0x300>
402f12a8:	e595300c 	ldr	r3, [r5, #12]
402f12ac:	e1a00004 	mov	r0, r4
402f12b0:	e24bd01c 	sub	sp, fp, #28
402f12b4:	e8bd4ff0 	pop	{r4, r5, r6, r7, r8, r9, sl, fp, lr}
402f12b8:	e12fff13 	bx	r3
402f12bc:	e1a02006 	mov	r2, r6
402f12c0:	e5904014 	ldr	r4, [r0, #20]
402f12c4:	e5906018 	ldr	r6, [r0, #24]
402f12c8:	e3a01030 	mov	r1, #48	@ 0x30
402f12cc:	e5909010 	ldr	r9, [r0, #16]
402f12d0:	e5801010 	str	r1, [r0, #16]
402f12d4:	e3a01001 	mov	r1, #1
402f12d8:	e5d0a020 	ldrb	sl, [r0, #32]
402f12dc:	e5c01020 	strb	r1, [r0, #32]
402f12e0:	e1a01006 	mov	r1, r6
402f12e4:	e58d0008 	str	r0, [sp, #8]
402f12e8:	e1a00004 	mov	r0, r4
402f12ec:	e58d2000 	str	r2, [sp]
402f12f0:	e1a02007 	mov	r2, r7
402f12f4:	eb000053 	bl	402f1448 <_ZN4core3fmt9Formatter12pad_integral12write_prefix17hcc62d75c194d204bE>
402f12f8:	e3500000 	cmp	r0, #0
402f12fc:	1a000027 	bne	402f13a0 <_ZN4core3fmt9Formatter12pad_integral17he25cf6c6dd8d7561E+0x2a8>
402f1300:	e0480005 	sub	r0, r8, r5
402f1304:	e59d800c 	ldr	r8, [sp, #12]
402f1308:	e59d7010 	ldr	r7, [sp, #16]
402f130c:	e2805001 	add	r5, r0, #1
402f1310:	e2555001 	subs	r5, r5, #1
402f1314:	0a000006 	beq	402f1334 <_ZN4core3fmt9Formatter12pad_integral17he25cf6c6dd8d7561E+0x23c>
402f1318:	e5962010 	ldr	r2, [r6, #16]
402f131c:	e1a00004 	mov	r0, r4
402f1320:	e3a01030 	mov	r1, #48	@ 0x30
402f1324:	e12fff32 	blx	r2
402f1328:	e3500000 	cmp	r0, #0
402f132c:	0afffff7 	beq	402f1310 <_ZN4core3fmt9Formatter12pad_integral17he25cf6c6dd8d7561E+0x218>
402f1330:	ea00001a 	b	402f13a0 <_ZN4core3fmt9Formatter12pad_integral17he25cf6c6dd8d7561E+0x2a8>
402f1334:	e596300c 	ldr	r3, [r6, #12]
402f1338:	e1a00004 	mov	r0, r4
402f133c:	e1a01007 	mov	r1, r7
402f1340:	e1a02008 	mov	r2, r8
402f1344:	e12fff33 	blx	r3
402f1348:	e3500000 	cmp	r0, #0
402f134c:	e3a00001 	mov	r0, #1
402f1350:	059d0008 	ldreq	r0, [sp, #8]
402f1354:	05c0a020 	strbeq	sl, [r0, #32]
402f1358:	05809010 	streq	r9, [r0, #16]
402f135c:	03a00000 	moveq	r0, #0
402f1360:	e24bd01c 	sub	sp, fp, #28
402f1364:	e8bd8ff0 	pop	{r4, r5, r6, r7, r8, r9, sl, fp, pc}
402f1368:	e2892001 	add	r2, r9, #1
402f136c:	e1a010a9 	lsr	r1, r9, #1
402f1370:	e1a090a2 	lsr	r9, r2, #1
402f1374:	e2808010 	add	r8, r0, #16
402f1378:	e2815001 	add	r5, r1, #1
402f137c:	e8980150 	ldm	r8, {r4, r6, r8}
402f1380:	e2555001 	subs	r5, r5, #1
402f1384:	0a000008 	beq	402f13ac <_ZN4core3fmt9Formatter12pad_integral17he25cf6c6dd8d7561E+0x2b4>
402f1388:	e5982010 	ldr	r2, [r8, #16]
402f138c:	e1a00006 	mov	r0, r6
402f1390:	e1a01004 	mov	r1, r4
402f1394:	e12fff32 	blx	r2
402f1398:	e3500000 	cmp	r0, #0
402f139c:	0afffff7 	beq	402f1380 <_ZN4core3fmt9Formatter12pad_integral17he25cf6c6dd8d7561E+0x288>
402f13a0:	e3a00001 	mov	r0, #1
402f13a4:	e24bd01c 	sub	sp, fp, #28
402f13a8:	e8bd8ff0 	pop	{r4, r5, r6, r7, r8, r9, sl, fp, pc}
402f13ac:	e58da000 	str	sl, [sp]
402f13b0:	e1a00006 	mov	r0, r6
402f13b4:	e59d3008 	ldr	r3, [sp, #8]
402f13b8:	e1a01008 	mov	r1, r8
402f13bc:	e1a02007 	mov	r2, r7
402f13c0:	eb000020 	bl	402f1448 <_ZN4core3fmt9Formatter12pad_integral12write_prefix17hcc62d75c194d204bE>
402f13c4:	e1a01000 	mov	r1, r0
402f13c8:	e3a00001 	mov	r0, #1
402f13cc:	e3510000 	cmp	r1, #0
402f13d0:	1a000008 	bne	402f13f8 <_ZN4core3fmt9Formatter12pad_integral17he25cf6c6dd8d7561E+0x300>
402f13d4:	e598300c 	ldr	r3, [r8, #12]
402f13d8:	e1a00006 	mov	r0, r6
402f13dc:	e59d1010 	ldr	r1, [sp, #16]
402f13e0:	e59d200c 	ldr	r2, [sp, #12]
402f13e4:	e12fff33 	blx	r3
402f13e8:	e1a01000 	mov	r1, r0
402f13ec:	e3a00001 	mov	r0, #1
402f13f0:	e3510000 	cmp	r1, #0
402f13f4:	0a000001 	beq	402f1400 <_ZN4core3fmt9Formatter12pad_integral17he25cf6c6dd8d7561E+0x308>
402f13f8:	e24bd01c 	sub	sp, fp, #28
402f13fc:	e8bd8ff0 	pop	{r4, r5, r6, r7, r8, r9, sl, fp, pc}
402f1400:	e3a05000 	mov	r5, #0
402f1404:	e1590005 	cmp	r9, r5
402f1408:	0a000008 	beq	402f1430 <_ZN4core3fmt9Formatter12pad_integral17he25cf6c6dd8d7561E+0x338>
402f140c:	e5982010 	ldr	r2, [r8, #16]
402f1410:	e1a00006 	mov	r0, r6
402f1414:	e1a01004 	mov	r1, r4
402f1418:	e12fff32 	blx	r2
402f141c:	e2855001 	add	r5, r5, #1
402f1420:	e3500000 	cmp	r0, #0
402f1424:	0afffff6 	beq	402f1404 <_ZN4core3fmt9Formatter12pad_integral17he25cf6c6dd8d7561E+0x30c>
402f1428:	e2451001 	sub	r1, r5, #1
402f142c:	ea000000 	b	402f1434 <_ZN4core3fmt9Formatter12pad_integral17he25cf6c6dd8d7561E+0x33c>
402f1430:	e1a01009 	mov	r1, r9
402f1434:	e3a00000 	mov	r0, #0
402f1438:	e1510009 	cmp	r1, r9
402f143c:	33000001 	movwcc	r0, #1
402f1440:	e24bd01c 	sub	sp, fp, #28
402f1444:	e8bd8ff0 	pop	{r4, r5, r6, r7, r8, r9, sl, fp, pc}

402f1448 <_ZN4core3fmt9Formatter12pad_integral12write_prefix17hcc62d75c194d204bE>:
402f1448:	e92d48f0 	push	{r4, r5, r6, r7, fp, lr}
402f144c:	e28db010 	add	fp, sp, #16
402f1450:	e59b5008 	ldr	r5, [fp, #8]
402f1454:	e1a04003 	mov	r4, r3
402f1458:	e1a06001 	mov	r6, r1
402f145c:	e3520811 	cmp	r2, #1114112	@ 0x110000
402f1460:	0a000008 	beq	402f1488 <_ZN4core3fmt9Formatter12pad_integral12write_prefix17hcc62d75c194d204bE+0x40>
402f1464:	e5963010 	ldr	r3, [r6, #16]
402f1468:	e1a01002 	mov	r1, r2
402f146c:	e1a07000 	mov	r7, r0
402f1470:	e12fff33 	blx	r3
402f1474:	e1a02000 	mov	r2, r0
402f1478:	e1a00007 	mov	r0, r7
402f147c:	e3a01001 	mov	r1, #1
402f1480:	e3520000 	cmp	r2, #0
402f1484:	1a000007 	bne	402f14a8 <_ZN4core3fmt9Formatter12pad_integral12write_prefix17hcc62d75c194d204bE+0x60>
402f1488:	e3540000 	cmp	r4, #0
402f148c:	0a000004 	beq	402f14a4 <_ZN4core3fmt9Formatter12pad_integral12write_prefix17hcc62d75c194d204bE+0x5c>
402f1490:	e596300c 	ldr	r3, [r6, #12]
402f1494:	e1a01004 	mov	r1, r4
402f1498:	e1a02005 	mov	r2, r5
402f149c:	e8bd48f0 	pop	{r4, r5, r6, r7, fp, lr}
402f14a0:	e12fff13 	bx	r3
402f14a4:	e3a01000 	mov	r1, #0
402f14a8:	e1a00001 	mov	r0, r1
402f14ac:	e8bd88f0 	pop	{r4, r5, r6, r7, fp, pc}

402f14b0 <_ZN4core3str5count14do_count_chars17hdf6b9943e5b80059E>:
402f14b0:	e92d4ff0 	push	{r4, r5, r6, r7, r8, r9, sl, fp, lr}
402f14b4:	e28db01c 	add	fp, sp, #28
402f14b8:	e24dd008 	sub	sp, sp, #8
402f14bc:	e1a02000 	mov	r2, r0
402f14c0:	e2800003 	add	r0, r0, #3
402f14c4:	e3c07003 	bic	r7, r0, #3
402f14c8:	e0475002 	sub	r5, r7, r2
402f14cc:	e1510005 	cmp	r1, r5
402f14d0:	3a00005b 	bcc	402f1644 <_ZN4core3str5count14do_count_chars17hdf6b9943e5b80059E+0x194>
402f14d4:	e0414005 	sub	r4, r1, r5
402f14d8:	e1b09124 	lsrs	r9, r4, #2
402f14dc:	0a000058 	beq	402f1644 <_ZN4core3str5count14do_count_chars17hdf6b9943e5b80059E+0x194>
402f14e0:	e204c003 	and	ip, r4, #3
402f14e4:	e3a0e000 	mov	lr, #0
402f14e8:	e1570002 	cmp	r7, r2
402f14ec:	e3a01000 	mov	r1, #0
402f14f0:	0a000006 	beq	402f1510 <_ZN4core3str5count14do_count_chars17hdf6b9943e5b80059E+0x60>
402f14f4:	e0427007 	sub	r7, r2, r7
402f14f8:	e1a06002 	mov	r6, r2
402f14fc:	e0d600d1 	ldrsb	r0, [r6], #1
402f1500:	e3700041 	cmn	r0, #65	@ 0x41
402f1504:	c2811001 	addgt	r1, r1, #1
402f1508:	e2977001 	adds	r7, r7, #1
402f150c:	3afffffa 	bcc	402f14fc <_ZN4core3str5count14do_count_chars17hdf6b9943e5b80059E+0x4c>
402f1510:	e0825005 	add	r5, r2, r5
402f1514:	e35c0000 	cmp	ip, #0
402f1518:	0a00000f 	beq	402f155c <_ZN4core3str5count14do_count_chars17hdf6b9943e5b80059E+0xac>
402f151c:	e3c40003 	bic	r0, r4, #3
402f1520:	e3a0e000 	mov	lr, #0
402f1524:	e0852000 	add	r2, r5, r0
402f1528:	e1d200d0 	ldrsb	r0, [r2]
402f152c:	e3700041 	cmn	r0, #65	@ 0x41
402f1530:	c300e001 	movwgt	lr, #1
402f1534:	e35c0001 	cmp	ip, #1
402f1538:	0a000007 	beq	402f155c <_ZN4core3str5count14do_count_chars17hdf6b9943e5b80059E+0xac>
402f153c:	e1d200d1 	ldrsb	r0, [r2, #1]
402f1540:	e3700041 	cmn	r0, #65	@ 0x41
402f1544:	c28ee001 	addgt	lr, lr, #1
402f1548:	e35c0002 	cmp	ip, #2
402f154c:	0a000002 	beq	402f155c <_ZN4core3str5count14do_count_chars17hdf6b9943e5b80059E+0xac>
402f1550:	e1d200d2 	ldrsb	r0, [r2, #2]
402f1554:	e3700041 	cmn	r0, #65	@ 0x41
402f1558:	c28ee001 	addgt	lr, lr, #1
402f155c:	e08e0001 	add	r0, lr, r1
402f1560:	e3001101 	movw	r1, #257	@ 0x101
402f1564:	e3401101 	movt	r1, #257	@ 0x101
402f1568:	ea00000d 	b	402f15a4 <_ZN4core3str5count14do_count_chars17hdf6b9943e5b80059E+0xf4>
402f156c:	e30030ff 	movw	r3, #255	@ 0xff
402f1570:	e59d4004 	ldr	r4, [sp, #4]
402f1574:	e34030ff 	movt	r3, #255	@ 0xff
402f1578:	e0072003 	and	r2, r7, r3
402f157c:	e0033427 	and	r3, r3, r7, lsr #8
402f1580:	e049900a 	sub	r9, r9, sl
402f1584:	e0832002 	add	r2, r3, r2
402f1588:	e3003001 	movw	r3, #1
402f158c:	e3403001 	movt	r3, #1
402f1590:	e084510a 	add	r5, r4, sl, lsl #2
402f1594:	e0020392 	mul	r2, r2, r3
402f1598:	e21a6003 	ands	r6, sl, #3
402f159c:	e0800822 	add	r0, r0, r2, lsr #16
402f15a0:	1a000031 	bne	402f166c <_ZN4core3str5count14do_count_chars17hdf6b9943e5b80059E+0x1bc>
402f15a4:	e3590000 	cmp	r9, #0
402f15a8:	0a00002d 	beq	402f1664 <_ZN4core3str5count14do_count_chars17hdf6b9943e5b80059E+0x1b4>
402f15ac:	e35900c0 	cmp	r9, #192	@ 0xc0
402f15b0:	e1a0a009 	mov	sl, r9
402f15b4:	23a0a0c0 	movcs	sl, #192	@ 0xc0
402f15b8:	e3a07000 	mov	r7, #0
402f15bc:	e3590004 	cmp	r9, #4
402f15c0:	e20a20fc 	and	r2, sl, #252	@ 0xfc
402f15c4:	e58d5004 	str	r5, [sp, #4]
402f15c8:	e58d2000 	str	r2, [sp]
402f15cc:	3affffe6 	bcc	402f156c <_ZN4core3str5count14do_count_chars17hdf6b9943e5b80059E+0xbc>
402f15d0:	e59d3000 	ldr	r3, [sp]
402f15d4:	e59d2004 	ldr	r2, [sp, #4]
402f15d8:	e0825103 	add	r5, r2, r3, lsl #2
402f15dc:	e9925008 	ldmib	r2, {r3, ip, lr}
402f15e0:	e5924000 	ldr	r4, [r2]
402f15e4:	e2822010 	add	r2, r2, #16
402f15e8:	e1e08003 	mvn	r8, r3
402f15ec:	e1520005 	cmp	r2, r5
402f15f0:	e1a063a8 	lsr	r6, r8, #7
402f15f4:	e1863323 	orr	r3, r6, r3, lsr #6
402f15f8:	e1e06004 	mvn	r6, r4
402f15fc:	e0033001 	and	r3, r3, r1
402f1600:	e1a063a6 	lsr	r6, r6, #7
402f1604:	e1864324 	orr	r4, r6, r4, lsr #6
402f1608:	e0044001 	and	r4, r4, r1
402f160c:	e0844007 	add	r4, r4, r7
402f1610:	e0833004 	add	r3, r3, r4
402f1614:	e1e0400c 	mvn	r4, ip
402f1618:	e1a043a4 	lsr	r4, r4, #7
402f161c:	e184732c 	orr	r7, r4, ip, lsr #6
402f1620:	e0077001 	and	r7, r7, r1
402f1624:	e0873003 	add	r3, r7, r3
402f1628:	e1e0700e 	mvn	r7, lr
402f162c:	e1a073a7 	lsr	r7, r7, #7
402f1630:	e187732e 	orr	r7, r7, lr, lsr #6
402f1634:	e0077001 	and	r7, r7, r1
402f1638:	e0877003 	add	r7, r7, r3
402f163c:	1affffe6 	bne	402f15dc <_ZN4core3str5count14do_count_chars17hdf6b9943e5b80059E+0x12c>
402f1640:	eaffffc9 	b	402f156c <_ZN4core3str5count14do_count_chars17hdf6b9943e5b80059E+0xbc>
402f1644:	e3a00000 	mov	r0, #0
402f1648:	e3510000 	cmp	r1, #0
402f164c:	0a000004 	beq	402f1664 <_ZN4core3str5count14do_count_chars17hdf6b9943e5b80059E+0x1b4>
402f1650:	e0d230d1 	ldrsb	r3, [r2], #1
402f1654:	e3730041 	cmn	r3, #65	@ 0x41
402f1658:	c2800001 	addgt	r0, r0, #1
402f165c:	e2511001 	subs	r1, r1, #1
402f1660:	1afffffa 	bne	402f1650 <_ZN4core3str5count14do_count_chars17hdf6b9943e5b80059E+0x1a0>
402f1664:	e24bd01c 	sub	sp, fp, #28
402f1668:	e8bd8ff0 	pop	{r4, r5, r6, r7, r8, r9, sl, fp, pc}
402f166c:	e59d2000 	ldr	r2, [sp]
402f1670:	e3560001 	cmp	r6, #1
402f1674:	e7b42102 	ldr	r2, [r4, r2, lsl #2]!
402f1678:	e1e03002 	mvn	r3, r2
402f167c:	e1a033a3 	lsr	r3, r3, #7
402f1680:	e1832322 	orr	r2, r3, r2, lsr #6
402f1684:	e0022001 	and	r2, r2, r1
402f1688:	0a00000d 	beq	402f16c4 <_ZN4core3str5count14do_count_chars17hdf6b9943e5b80059E+0x214>
402f168c:	e5943004 	ldr	r3, [r4, #4]
402f1690:	e3560002 	cmp	r6, #2
402f1694:	e1e07003 	mvn	r7, r3
402f1698:	e1a073a7 	lsr	r7, r7, #7
402f169c:	e1873323 	orr	r3, r7, r3, lsr #6
402f16a0:	e0033001 	and	r3, r3, r1
402f16a4:	e0832002 	add	r2, r3, r2
402f16a8:	0a000005 	beq	402f16c4 <_ZN4core3str5count14do_count_chars17hdf6b9943e5b80059E+0x214>
402f16ac:	e5943008 	ldr	r3, [r4, #8]
402f16b0:	e1e07003 	mvn	r7, r3
402f16b4:	e1a073a7 	lsr	r7, r7, #7
402f16b8:	e1873323 	orr	r3, r7, r3, lsr #6
402f16bc:	e0031001 	and	r1, r3, r1
402f16c0:	e0812002 	add	r2, r1, r2
402f16c4:	e30030ff 	movw	r3, #255	@ 0xff
402f16c8:	e34030ff 	movt	r3, #255	@ 0xff
402f16cc:	e0021003 	and	r1, r2, r3
402f16d0:	e0032422 	and	r2, r3, r2, lsr #8
402f16d4:	e0821001 	add	r1, r2, r1
402f16d8:	e3002001 	movw	r2, #1
402f16dc:	e3402001 	movt	r2, #1
402f16e0:	e0010291 	mul	r1, r1, r2
402f16e4:	e0800821 	add	r0, r0, r1, lsr #16
402f16e8:	e24bd01c 	sub	sp, fp, #28
402f16ec:	e8bd8ff0 	pop	{r4, r5, r6, r7, r8, r9, sl, fp, pc}

402f16f0 <_ZN4core3fmt3num3imp52_$LT$impl$u20$core..fmt..Display$u20$for$u20$u32$GT$3fmt17h46e7c0db035e9405E>:
402f16f0:	e92d4ff0 	push	{r4, r5, r6, r7, r8, r9, sl, fp, lr}
402f16f4:	e28db01c 	add	fp, sp, #28
402f16f8:	e24dd01c 	sub	sp, sp, #28
402f16fc:	e1a07001 	mov	r7, r1
402f1700:	e5901000 	ldr	r1, [r0]
402f1704:	e3019c00 	movw	r9, #7168	@ 0x1c00
402f1708:	e28dc012 	add	ip, sp, #18
402f170c:	e3022710 	movw	r2, #10000	@ 0x2710
402f1710:	e3a0e00a 	mov	lr, #10
402f1714:	e1510002 	cmp	r1, r2
402f1718:	e344902f 	movt	r9, #16431	@ 0x402f
402f171c:	3a000030 	bcc	402f17e4 <_ZN4core3fmt3num3imp52_$LT$impl$u20$core..fmt..Display$u20$for$u20$u32$GT$3fmt17h46e7c0db035e9405E+0xf4>
402f1720:	e30ee0ff 	movw	lr, #57599	@ 0xe0ff
402f1724:	e3a00000 	mov	r0, #0
402f1728:	e301a47b 	movw	sl, #5243	@ 0x147b
402f172c:	e3a08064 	mov	r8, #100	@ 0x64
402f1730:	e340e5f5 	movt	lr, #1525	@ 0x5f5
402f1734:	e58d700c 	str	r7, [sp, #12]
402f1738:	e3013759 	movw	r3, #5977	@ 0x1759
402f173c:	e08c5000 	add	r5, ip, r0
402f1740:	e34d31b7 	movt	r3, #53687	@ 0xd1b7
402f1744:	e2400004 	sub	r0, r0, #4
402f1748:	e0863391 	umull	r3, r6, r1, r3
402f174c:	e151000e 	cmp	r1, lr
402f1750:	e1a036a6 	lsr	r3, r6, #13
402f1754:	e0661293 	mls	r6, r3, r2, r1
402f1758:	e1a0200c 	mov	r2, ip
402f175c:	e1a01003 	mov	r1, r3
402f1760:	e6ffc076 	uxth	ip, r6
402f1764:	e1a0712c 	lsr	r7, ip, #2
402f1768:	e1a0c002 	mov	ip, r2
402f176c:	e1670a87 	smulbb	r7, r7, sl
402f1770:	e1a02009 	mov	r2, r9
402f1774:	e1a078a7 	lsr	r7, r7, #17
402f1778:	e7f24087 	ldrb	r4, [r2, r7, lsl #1]!
402f177c:	e5c54006 	strb	r4, [r5, #6]
402f1780:	e5d22001 	ldrb	r2, [r2, #1]
402f1784:	e5c52007 	strb	r2, [r5, #7]
402f1788:	e0626897 	mls	r2, r7, r8, r6
402f178c:	e1a07009 	mov	r7, r9
402f1790:	e6ff2072 	uxth	r2, r2
402f1794:	e7f72082 	ldrb	r2, [r7, r2, lsl #1]!
402f1798:	e5c52008 	strb	r2, [r5, #8]
402f179c:	e5d72001 	ldrb	r2, [r7, #1]
402f17a0:	e5c52009 	strb	r2, [r5, #9]
402f17a4:	e3022710 	movw	r2, #10000	@ 0x2710
402f17a8:	8affffe2 	bhi	402f1738 <_ZN4core3fmt3num3imp52_$LT$impl$u20$core..fmt..Display$u20$for$u20$u32$GT$3fmt17h46e7c0db035e9405E+0x48>
402f17ac:	e59d700c 	ldr	r7, [sp, #12]
402f17b0:	e280e00a 	add	lr, r0, #10
402f17b4:	e3530063 	cmp	r3, #99	@ 0x63
402f17b8:	8a00000c 	bhi	402f17f0 <_ZN4core3fmt3num3imp52_$LT$impl$u20$core..fmt..Display$u20$for$u20$u32$GT$3fmt17h46e7c0db035e9405E+0x100>
402f17bc:	e1a00003 	mov	r0, r3
402f17c0:	e350000a 	cmp	r0, #10
402f17c4:	3a00001a 	bcc	402f1834 <_ZN4core3fmt3num3imp52_$LT$impl$u20$core..fmt..Display$u20$for$u20$u32$GT$3fmt17h46e7c0db035e9405E+0x144>
402f17c8:	e24e1002 	sub	r1, lr, #2
402f17cc:	e7f90080 	ldrb	r0, [r9, r0, lsl #1]!
402f17d0:	e7cc0001 	strb	r0, [ip, r1]
402f17d4:	e08c0001 	add	r0, ip, r1
402f17d8:	e5d92001 	ldrb	r2, [r9, #1]
402f17dc:	e5c02001 	strb	r2, [r0, #1]
402f17e0:	ea000016 	b	402f1840 <_ZN4core3fmt3num3imp52_$LT$impl$u20$core..fmt..Display$u20$for$u20$u32$GT$3fmt17h46e7c0db035e9405E+0x150>
402f17e4:	e1a03001 	mov	r3, r1
402f17e8:	e3530063 	cmp	r3, #99	@ 0x63
402f17ec:	9afffff2 	bls	402f17bc <_ZN4core3fmt3num3imp52_$LT$impl$u20$core..fmt..Display$u20$for$u20$u32$GT$3fmt17h46e7c0db035e9405E+0xcc>
402f17f0:	e6ff0073 	uxth	r0, r3
402f17f4:	e301147b 	movw	r1, #5243	@ 0x147b
402f17f8:	e1a00120 	lsr	r0, r0, #2
402f17fc:	e1a02009 	mov	r2, r9
402f1800:	e1600180 	smulbb	r0, r0, r1
402f1804:	e3a01064 	mov	r1, #100	@ 0x64
402f1808:	e24ee002 	sub	lr, lr, #2
402f180c:	e1a008a0 	lsr	r0, r0, #17
402f1810:	e0613190 	mls	r1, r0, r1, r3
402f1814:	e6ff1071 	uxth	r1, r1
402f1818:	e7f21081 	ldrb	r1, [r2, r1, lsl #1]!
402f181c:	e7cc100e 	strb	r1, [ip, lr]
402f1820:	e08c100e 	add	r1, ip, lr
402f1824:	e5d22001 	ldrb	r2, [r2, #1]
402f1828:	e5c12001 	strb	r2, [r1, #1]
402f182c:	e350000a 	cmp	r0, #10
402f1830:	2affffe4 	bcs	402f17c8 <_ZN4core3fmt3num3imp52_$LT$impl$u20$core..fmt..Display$u20$for$u20$u32$GT$3fmt17h46e7c0db035e9405E+0xd8>
402f1834:	e24e1001 	sub	r1, lr, #1
402f1838:	e3800030 	orr	r0, r0, #48	@ 0x30
402f183c:	e7cc0001 	strb	r0, [ip, r1]
402f1840:	e261300a 	rsb	r3, r1, #10
402f1844:	e08c2001 	add	r2, ip, r1
402f1848:	e1a00007 	mov	r0, r7
402f184c:	e3a01001 	mov	r1, #1
402f1850:	e1cd20f0 	strd	r2, [sp]
402f1854:	e3a02001 	mov	r2, #1
402f1858:	e3a03000 	mov	r3, #0
402f185c:	ebfffe25 	bl	402f10f8 <_ZN4core3fmt9Formatter12pad_integral17he25cf6c6dd8d7561E>
402f1860:	e24bd01c 	sub	sp, fp, #28
402f1864:	e8bd8ff0 	pop	{r4, r5, r6, r7, r8, r9, sl, fp, pc}

402f1868 <__aeabi_memclr8>:
402f1868:	e3510004 	cmp	r1, #4
402f186c:	3a000004 	bcc	402f1884 <__aeabi_memclr8+0x1c>
402f1870:	e3a02000 	mov	r2, #0
402f1874:	e2411004 	sub	r1, r1, #4
402f1878:	e4802004 	str	r2, [r0], #4
402f187c:	e3510003 	cmp	r1, #3
402f1880:	8afffffb 	bhi	402f1874 <__aeabi_memclr8+0xc>
402f1884:	e3510000 	cmp	r1, #0
402f1888:	012fff1e 	bxeq	lr
402f188c:	e0801001 	add	r1, r0, r1
402f1890:	e3a02000 	mov	r2, #0
402f1894:	e4c02001 	strb	r2, [r0], #1
402f1898:	e1500001 	cmp	r0, r1
402f189c:	3afffffc 	bcc	402f1894 <__aeabi_memclr8+0x2c>
402f18a0:	e12fff1e 	bx	lr

402f18a4 <setup_modes>:
402f18a4:	e3a000d2 	mov	r0, #210	@ 0xd2
402f18a8:	e121f000 	msr	CPSR_c, r0
402f18ac:	e59fd014 	ldr	sp, [pc, #20]	@ 402f18c8 <setup_modes+0x24>
402f18b0:	e3a000d3 	mov	r0, #211	@ 0xd3
402f18b4:	e121f000 	msr	CPSR_c, r0
402f18b8:	e59fd00c 	ldr	sp, [pc, #12]	@ 402f18cc <setup_modes+0x28>
402f18bc:	e3a00053 	mov	r0, #83	@ 0x53
402f18c0:	e121f000 	msr	CPSR_c, r0
402f18c4:	e12fff1e 	bx	lr
402f18c8:	402fb7f8 	.word	0x402fb7f8
402f18cc:	402fa7f8 	.word	0x402fa7f8
	...

402f18e0 <vectors>:
402f18e0:	eafffac6 	b	402f0400 <_start>
402f18e4:	eafffbbc 	b	402f07dc <undefined_handler>
402f18e8:	ea000036 	b	402f19c8 <handle_swi>
402f18ec:	eafffbb2 	b	402f07bc <fetch_abort_handler>
402f18f0:	eafffba9 	b	402f079c <data_abort_handler>
402f18f4:	eafffffe 	b	402f18f4 <vectors+0x14>
402f18f8:	ea000005 	b	402f1914 <irq_handler>
402f18fc:	eafffffe 	b	402f18fc <vectors+0x1c>

402f1900 <setup_exceptions>:
402f1900:	e59f0008 	ldr	r0, [pc, #8]	@ 402f1910 <setup_exceptions+0x10>
402f1904:	ee0c0f10 	mcr	15, 0, r0, cr12, cr0, {0}
402f1908:	f57ff04f 	dsb	sy
402f190c:	e12fff1e 	bx	lr
402f1910:	402f18e0 	.word	0x402f18e0

402f1914 <irq_handler>:
402f1914:	e24ee004 	sub	lr, lr, #4
402f1918:	e92d5fff 	push	{r0, r1, r2, r3, r4, r5, r6, r7, r8, r9, sl, fp, ip, lr}
402f191c:	e14fb000 	mrs	fp, SPSR
402f1920:	e52db004 	push	{fp}		@ (str fp, [sp, #-4]!)
402f1924:	ebfffc24 	bl	402f09bc <handle_interrupt>
402f1928:	e3a00000 	mov	r0, #0
402f192c:	ee070f9a 	mcr	15, 0, r0, cr7, cr10, {4}
402f1930:	e49db004 	pop	{fp}		@ (ldr fp, [sp], #4)
402f1934:	e169f00b 	msr	SPSR_fc, fp
402f1938:	e20bb01f 	and	fp, fp, #31
402f193c:	e35b0013 	cmp	fp, #19
402f1940:	0a000002 	beq	402f1950 <return_interrupt>
402f1944:	e59f0070 	ldr	r0, [pc, #112]	@ 402f19bc <yielded>
402f1948:	e3500001 	cmp	r0, #1
402f194c:	0a000000 	beq	402f1954 <store_context>

402f1950 <return_interrupt>:
402f1950:	e8fd9fff 	ldm	sp!, {r0, r1, r2, r3, r4, r5, r6, r7, r8, r9, sl, fp, ip, pc}^

402f1954 <store_context>:
402f1954:	e8bd5fff 	pop	{r0, r1, r2, r3, r4, r5, r6, r7, r8, r9, sl, fp, ip, lr}
402f1958:	e58fe060 	str	lr, [pc, #96]	@ 402f19c0 <next_pc>
402f195c:	e52d0004 	push	{r0}		@ (str r0, [sp, #-4]!)
402f1960:	e14f0000 	mrs	r0, SPSR
402f1964:	e58f0058 	str	r0, [pc, #88]	@ 402f19c4 <temp_spsr>
402f1968:	e49d0004 	pop	{r0}		@ (ldr r0, [sp], #4)
402f196c:	e321f0df 	msr	CPSR_c, #223	@ 0xdf
402f1970:	e92d5fff 	push	{r0, r1, r2, r3, r4, r5, r6, r7, r8, r9, sl, fp, ip, lr}
402f1974:	e3a00000 	mov	r0, #0
402f1978:	e58f003c 	str	r0, [pc, #60]	@ 402f19bc <yielded>
402f197c:	e59f0040 	ldr	r0, [pc, #64]	@ 402f19c4 <temp_spsr>
402f1980:	e52d0004 	push	{r0}		@ (str r0, [sp, #-4]!)
402f1984:	e1a0000d 	mov	r0, sp
402f1988:	e59f1030 	ldr	r1, [pc, #48]	@ 402f19c0 <next_pc>
402f198c:	e3a02000 	mov	r2, #0
402f1990:	ef000001 	svc	0x00000001

402f1994 <restore_context>:
402f1994:	e321f0df 	msr	CPSR_c, #223	@ 0xdf
402f1998:	e58f1020 	str	r1, [pc, #32]	@ 402f19c0 <next_pc>
402f199c:	e1a0d000 	mov	sp, r0
402f19a0:	e49d0004 	pop	{r0}		@ (ldr r0, [sp], #4)
402f19a4:	e12ff000 	msr	CPSR_fsxc, r0
402f19a8:	e8bd5fff 	pop	{r0, r1, r2, r3, r4, r5, r6, r7, r8, r9, sl, fp, ip, lr}
402f19ac:	e59ff00c 	ldr	pc, [pc, #12]	@ 402f19c0 <next_pc>

402f19b0 <yield_task>:
402f19b0:	e3a00001 	mov	r0, #1
402f19b4:	e58f0000 	str	r0, [pc]	@ 402f19bc <yielded>
402f19b8:	e12fff1e 	bx	lr

402f19bc <yielded>:
402f19bc:	00000000 	.word	0x00000000

402f19c0 <next_pc>:
402f19c0:	00000000 	.word	0x00000000

402f19c4 <temp_spsr>:
402f19c4:	00000000 	.word	0x00000000

402f19c8 <handle_swi>:
402f19c8:	e92d5fff 	push	{r0, r1, r2, r3, r4, r5, r6, r7, r8, r9, sl, fp, ip, lr}
402f19cc:	e24ee004 	sub	lr, lr, #4
402f19d0:	e59ec000 	ldr	ip, [lr]
402f19d4:	e3ccc4ff 	bic	ip, ip, #-16777216	@ 0xff000000
402f19d8:	e92d100f 	push	{r0, r1, r2, r3, ip}
402f19dc:	e1a0100d 	mov	r1, sp
402f19e0:	e24dd008 	sub	sp, sp, #8
402f19e4:	e1a0000d 	mov	r0, sp
402f19e8:	ebfffc07 	bl	402f0a0c <swi_handler>
402f19ec:	e59d0004 	ldr	r0, [sp, #4]
402f19f0:	e5dd1000 	ldrb	r1, [sp]
402f19f4:	e28dd008 	add	sp, sp, #8
402f19f8:	e28dd014 	add	sp, sp, #20
402f19fc:	e3510001 	cmp	r1, #1
402f1a00:	0a000001 	beq	402f1a0c <exit>
402f1a04:	e58d0000 	str	r0, [sp]
402f1a08:	e8fd9fff 	ldm	sp!, {r0, r1, r2, r3, r4, r5, r6, r7, r8, r9, sl, fp, ip, pc}^

402f1a0c <exit>:
402f1a0c:	e321f053 	msr	CPSR_c, #83	@ 0x53
402f1a10:	e28dd038 	add	sp, sp, #56	@ 0x38
402f1a14:	eafffcf2 	b	402f0de4 <kernel_loop>

402f1a18 <switch_context>:
402f1a18:	e3a02050 	mov	r2, #80	@ 0x50
402f1a1c:	e121f002 	msr	CPSR_c, r2
402f1a20:	e1a0d000 	mov	sp, r0
402f1a24:	e12fff31 	blx	r1
402f1a28:	ef000000 	svc	0x00000000

402f1a2c <wait_store>:
402f1a2c:	e92d5fff 	push	{r0, r1, r2, r3, r4, r5, r6, r7, r8, r9, sl, fp, ip, lr}
402f1a30:	e1a02000 	mov	r2, r0
402f1a34:	e10f0000 	mrs	r0, CPSR
402f1a38:	e52d0004 	push	{r0}		@ (str r0, [sp, #-4]!)
402f1a3c:	e1a0000d 	mov	r0, sp
402f1a40:	e1a0100e 	mov	r1, lr
402f1a44:	e1a02002 	mov	r2, r2
402f1a48:	ef000001 	svc	0x00000001
